	.file	"driver.cpp"
	.text
	.section	.text._ZnwmPv,"axG",@progbits,_ZnwmPv,comdat
	.weak	_ZnwmPv
	.type	_ZnwmPv, @function
_ZnwmPv:
.LFB38:
	.cfi_startproc
	endbr64
	pushq	%rbp
	.cfi_def_cfa_offset 16
	.cfi_offset 6, -16
	movq	%rsp, %rbp
	.cfi_def_cfa_register 6
	movq	%rdi, -8(%rbp)
	movq	%rsi, -16(%rbp)
	movq	-16(%rbp), %rax
	popq	%rbp
	.cfi_def_cfa 7, 8
	ret
	.cfi_endproc
.LFE38:
	.size	_ZnwmPv, .-_ZnwmPv
	.section	.text._ZdlPvS_,"axG",@progbits,_ZdlPvS_,comdat
	.weak	_ZdlPvS_
	.type	_ZdlPvS_, @function
_ZdlPvS_:
.LFB40:
	.cfi_startproc
	endbr64
	pushq	%rbp
	.cfi_def_cfa_offset 16
	.cfi_offset 6, -16
	movq	%rsp, %rbp
	.cfi_def_cfa_register 6
	movq	%rdi, -8(%rbp)
	movq	%rsi, -16(%rbp)
	nop
	popq	%rbp
	.cfi_def_cfa 7, 8
	ret
	.cfi_endproc
.LFE40:
	.size	_ZdlPvS_, .-_ZdlPvS_
	.section	.rodata
	.type	_ZStL19piecewise_construct, @object
	.size	_ZStL19piecewise_construct, 1
_ZStL19piecewise_construct:
	.zero	1
	.section	.text._ZNKSt4hashIiEclEi,"axG",@progbits,_ZNKSt4hashIiEclEi,comdat
	.align 2
	.weak	_ZNKSt4hashIiEclEi
	.type	_ZNKSt4hashIiEclEi, @function
_ZNKSt4hashIiEclEi:
.LFB952:
	.cfi_startproc
	endbr64
	pushq	%rbp
	.cfi_def_cfa_offset 16
	.cfi_offset 6, -16
	movq	%rsp, %rbp
	.cfi_def_cfa_register 6
	movq	%rdi, -8(%rbp)
	movl	%esi, -12(%rbp)
	movl	-12(%rbp), %eax
	cltq
	popq	%rbp
	.cfi_def_cfa 7, 8
	ret
	.cfi_endproc
.LFE952:
	.size	_ZNKSt4hashIiEclEi, .-_ZNKSt4hashIiEclEi
	.section	.text._ZNSt8literals15string_literalsli1sB5cxx11EPKcm,"axG",@progbits,_ZNSt8literals15string_literalsli1sB5cxx11EPKcm,comdat
	.weak	_ZNSt8literals15string_literalsli1sB5cxx11EPKcm
	.type	_ZNSt8literals15string_literalsli1sB5cxx11EPKcm, @function
_ZNSt8literals15string_literalsli1sB5cxx11EPKcm:
.LFB973:
	.cfi_startproc
	.cfi_personality 0x9b,DW.ref.__gxx_personality_v0
	.cfi_lsda 0x1b,.LLSDA973
	endbr64
	pushq	%rbp
	.cfi_def_cfa_offset 16
	.cfi_offset 6, -16
	movq	%rsp, %rbp
	.cfi_def_cfa_register 6
	pushq	%rbx
	subq	$56, %rsp
	.cfi_offset 3, -24
	movq	%rdi, -40(%rbp)
	movq	%rsi, -48(%rbp)
	movq	%rdx, -56(%rbp)
	movq	%fs:40, %rax
	movq	%rax, -24(%rbp)
	xorl	%eax, %eax
	leaq	-25(%rbp), %rax
	movq	%rax, %rdi
	call	_ZNSaIcEC1Ev@PLT
	leaq	-25(%rbp), %rcx
	movq	-56(%rbp), %rdx
	movq	-48(%rbp), %rsi
	movq	-40(%rbp), %rax
	movq	%rax, %rdi
.LEHB0:
	call	_ZNSt7__cxx1112basic_stringIcSt11char_traitsIcESaIcEEC1EPKcmRKS3_@PLT
.LEHE0:
	leaq	-25(%rbp), %rax
	movq	%rax, %rdi
	call	_ZNSaIcED1Ev@PLT
	movq	-24(%rbp), %rax
	xorq	%fs:40, %rax
	je	.L9
	jmp	.L11
.L10:
	endbr64
	movq	%rax, %rbx
	leaq	-25(%rbp), %rax
	movq	%rax, %rdi
	call	_ZNSaIcED1Ev@PLT
	movq	%rbx, %rax
	movq	%rax, %rdi
.LEHB1:
	call	_Unwind_Resume@PLT
.LEHE1:
.L11:
	call	__stack_chk_fail@PLT
.L9:
	movq	-40(%rbp), %rax
	addq	$56, %rsp
	popq	%rbx
	popq	%rbp
	.cfi_def_cfa 7, 8
	ret
	.cfi_endproc
.LFE973:
	.globl	__gxx_personality_v0
	.section	.gcc_except_table._ZNSt8literals15string_literalsli1sB5cxx11EPKcm,"aG",@progbits,_ZNSt8literals15string_literalsli1sB5cxx11EPKcm,comdat
.LLSDA973:
	.byte	0xff
	.byte	0xff
	.byte	0x1
	.uleb128 .LLSDACSE973-.LLSDACSB973
.LLSDACSB973:
	.uleb128 .LEHB0-.LFB973
	.uleb128 .LEHE0-.LEHB0
	.uleb128 .L10-.LFB973
	.uleb128 0
	.uleb128 .LEHB1-.LFB973
	.uleb128 .LEHE1-.LEHB1
	.uleb128 0
	.uleb128 0
.LLSDACSE973:
	.section	.text._ZNSt8literals15string_literalsli1sB5cxx11EPKcm,"axG",@progbits,_ZNSt8literals15string_literalsli1sB5cxx11EPKcm,comdat
	.size	_ZNSt8literals15string_literalsli1sB5cxx11EPKcm, .-_ZNSt8literals15string_literalsli1sB5cxx11EPKcm
	.local	_ZStL8__ioinit
	.comm	_ZStL8__ioinit,1,1
	.section	.text._ZNSt15_Rb_tree_headerC2Ev,"axG",@progbits,_ZNSt15_Rb_tree_headerC5Ev,comdat
	.align 2
	.weak	_ZNSt15_Rb_tree_headerC2Ev
	.type	_ZNSt15_Rb_tree_headerC2Ev, @function
_ZNSt15_Rb_tree_headerC2Ev:
.LFB1540:
	.cfi_startproc
	endbr64
	pushq	%rbp
	.cfi_def_cfa_offset 16
	.cfi_offset 6, -16
	movq	%rsp, %rbp
	.cfi_def_cfa_register 6
	subq	$16, %rsp
	movq	%rdi, -8(%rbp)
	movq	-8(%rbp), %rax
	movl	$0, (%rax)
	movq	-8(%rbp), %rax
	movq	%rax, %rdi
	call	_ZNSt15_Rb_tree_header8_M_resetEv
	nop
	leave
	.cfi_def_cfa 7, 8
	ret
	.cfi_endproc
.LFE1540:
	.size	_ZNSt15_Rb_tree_headerC2Ev, .-_ZNSt15_Rb_tree_headerC2Ev
	.weak	_ZNSt15_Rb_tree_headerC1Ev
	.set	_ZNSt15_Rb_tree_headerC1Ev,_ZNSt15_Rb_tree_headerC2Ev
	.section	.text._ZNSt15_Rb_tree_header8_M_resetEv,"axG",@progbits,_ZNSt15_Rb_tree_header8_M_resetEv,comdat
	.align 2
	.weak	_ZNSt15_Rb_tree_header8_M_resetEv
	.type	_ZNSt15_Rb_tree_header8_M_resetEv, @function
_ZNSt15_Rb_tree_header8_M_resetEv:
.LFB1546:
	.cfi_startproc
	endbr64
	pushq	%rbp
	.cfi_def_cfa_offset 16
	.cfi_offset 6, -16
	movq	%rsp, %rbp
	.cfi_def_cfa_register 6
	movq	%rdi, -8(%rbp)
	movq	-8(%rbp), %rax
	movq	$0, 8(%rax)
	movq	-8(%rbp), %rdx
	movq	-8(%rbp), %rax
	movq	%rdx, 16(%rax)
	movq	-8(%rbp), %rdx
	movq	-8(%rbp), %rax
	movq	%rdx, 24(%rax)
	movq	-8(%rbp), %rax
	movq	$0, 32(%rax)
	nop
	popq	%rbp
	.cfi_def_cfa 7, 8
	ret
	.cfi_endproc
.LFE1546:
	.size	_ZNSt15_Rb_tree_header8_M_resetEv, .-_ZNSt15_Rb_tree_header8_M_resetEv
	.section	.rodata
	.type	_ZStL13allocator_arg, @object
	.size	_ZStL13allocator_arg, 1
_ZStL13allocator_arg:
	.zero	1
	.type	_ZStL6ignore, @object
	.size	_ZStL6ignore, 1
_ZStL6ignore:
	.zero	1
	.section	.text._ZNSt8__detail15_Hash_node_baseC2Ev,"axG",@progbits,_ZNSt8__detail15_Hash_node_baseC5Ev,comdat
	.align 2
	.weak	_ZNSt8__detail15_Hash_node_baseC2Ev
	.type	_ZNSt8__detail15_Hash_node_baseC2Ev, @function
_ZNSt8__detail15_Hash_node_baseC2Ev:
.LFB2652:
	.cfi_startproc
	endbr64
	pushq	%rbp
	.cfi_def_cfa_offset 16
	.cfi_offset 6, -16
	movq	%rsp, %rbp
	.cfi_def_cfa_register 6
	movq	%rdi, -8(%rbp)
	movq	-8(%rbp), %rax
	movq	$0, (%rax)
	nop
	popq	%rbp
	.cfi_def_cfa 7, 8
	ret
	.cfi_endproc
.LFE2652:
	.size	_ZNSt8__detail15_Hash_node_baseC2Ev, .-_ZNSt8__detail15_Hash_node_baseC2Ev
	.weak	_ZNSt8__detail15_Hash_node_baseC1Ev
	.set	_ZNSt8__detail15_Hash_node_baseC1Ev,_ZNSt8__detail15_Hash_node_baseC2Ev
	.section	.text._ZNKSt8__detail18_Mod_range_hashingclEmm,"axG",@progbits,_ZNKSt8__detail18_Mod_range_hashingclEmm,comdat
	.align 2
	.weak	_ZNKSt8__detail18_Mod_range_hashingclEmm
	.type	_ZNKSt8__detail18_Mod_range_hashingclEmm, @function
_ZNKSt8__detail18_Mod_range_hashingclEmm:
.LFB2680:
	.cfi_startproc
	endbr64
	pushq	%rbp
	.cfi_def_cfa_offset 16
	.cfi_offset 6, -16
	movq	%rsp, %rbp
	.cfi_def_cfa_register 6
	movq	%rdi, -8(%rbp)
	movq	%rsi, -16(%rbp)
	movq	%rdx, -24(%rbp)
	movq	-16(%rbp), %rax
	movl	$0, %edx
	divq	-24(%rbp)
	movq	%rdx, %rax
	popq	%rbp
	.cfi_def_cfa 7, 8
	ret
	.cfi_endproc
.LFE2680:
	.size	_ZNKSt8__detail18_Mod_range_hashingclEmm, .-_ZNKSt8__detail18_Mod_range_hashingclEmm
	.section	.text._ZNSt8__detail20_Prime_rehash_policyC2Ef,"axG",@progbits,_ZNSt8__detail20_Prime_rehash_policyC5Ef,comdat
	.align 2
	.weak	_ZNSt8__detail20_Prime_rehash_policyC2Ef
	.type	_ZNSt8__detail20_Prime_rehash_policyC2Ef, @function
_ZNSt8__detail20_Prime_rehash_policyC2Ef:
.LFB2682:
	.cfi_startproc
	endbr64
	pushq	%rbp
	.cfi_def_cfa_offset 16
	.cfi_offset 6, -16
	movq	%rsp, %rbp
	.cfi_def_cfa_register 6
	movq	%rdi, -8(%rbp)
	movss	%xmm0, -12(%rbp)
	movq	-8(%rbp), %rax
	movss	-12(%rbp), %xmm0
	movss	%xmm0, (%rax)
	movq	-8(%rbp), %rax
	movq	$0, 8(%rax)
	nop
	popq	%rbp
	.cfi_def_cfa 7, 8
	ret
	.cfi_endproc
.LFE2682:
	.size	_ZNSt8__detail20_Prime_rehash_policyC2Ef, .-_ZNSt8__detail20_Prime_rehash_policyC2Ef
	.weak	_ZNSt8__detail20_Prime_rehash_policyC1Ef
	.set	_ZNSt8__detail20_Prime_rehash_policyC1Ef,_ZNSt8__detail20_Prime_rehash_policyC2Ef
	.section	.text._ZNKSt8__detail20_Prime_rehash_policy19_M_bkt_for_elementsEm,"axG",@progbits,_ZNKSt8__detail20_Prime_rehash_policy19_M_bkt_for_elementsEm,comdat
	.align 2
	.weak	_ZNKSt8__detail20_Prime_rehash_policy19_M_bkt_for_elementsEm
	.type	_ZNKSt8__detail20_Prime_rehash_policy19_M_bkt_for_elementsEm, @function
_ZNKSt8__detail20_Prime_rehash_policy19_M_bkt_for_elementsEm:
.LFB2685:
	.cfi_startproc
	endbr64
	pushq	%rbp
	.cfi_def_cfa_offset 16
	.cfi_offset 6, -16
	movq	%rsp, %rbp
	.cfi_def_cfa_register 6
	movq	%rdi, -8(%rbp)
	movq	%rsi, -16(%rbp)
	fildq	-16(%rbp)
	cmpq	$0, -16(%rbp)
	jns	.L19
	fldt	.LC0(%rip)
	faddp	%st, %st(1)
.L19:
	movq	-8(%rbp), %rax
	movss	(%rax), %xmm5
	movss	%xmm5, -24(%rbp)
	flds	-24(%rbp)
	fdivrp	%st, %st(1)
	fstpl	-24(%rbp)
	movsd	.LC1(%rip), %xmm1
	movsd	-24(%rbp), %xmm2
	movq	.LC2(%rip), %xmm0
	movapd	%xmm0, %xmm3
	movapd	%xmm2, %xmm0
	andpd	%xmm3, %xmm0
	ucomisd	%xmm0, %xmm1
	jbe	.L20
	cvttsd2siq	%xmm2, %rax
	cvtsi2sdq	%rax, %xmm0
	movsd	.LC3(%rip), %xmm4
	movapd	%xmm2, %xmm1
	cmpnlesd	%xmm0, %xmm1
	andpd	%xmm4, %xmm1
	addsd	%xmm1, %xmm0
	andnpd	%xmm2, %xmm3
	movapd	%xmm3, %xmm1
	orpd	%xmm1, %xmm0
	movapd	%xmm0, %xmm2
.L20:
	movapd	%xmm2, %xmm0
	comisd	.LC4(%rip), %xmm0
	jnb	.L21
	cvttsd2siq	%xmm0, %rax
	jmp	.L22
.L21:
	movsd	.LC4(%rip), %xmm1
	subsd	%xmm1, %xmm0
	cvttsd2siq	%xmm0, %rax
	movabsq	$-9223372036854775808, %rdx
	xorq	%rdx, %rax
.L22:
	popq	%rbp
	.cfi_def_cfa 7, 8
	ret
	.cfi_endproc
.LFE2685:
	.size	_ZNKSt8__detail20_Prime_rehash_policy19_M_bkt_for_elementsEm, .-_ZNKSt8__detail20_Prime_rehash_policy19_M_bkt_for_elementsEm
	.section	.text._ZNKSt8__detail20_Prime_rehash_policy8_M_stateEv,"axG",@progbits,_ZNKSt8__detail20_Prime_rehash_policy8_M_stateEv,comdat
	.align 2
	.weak	_ZNKSt8__detail20_Prime_rehash_policy8_M_stateEv
	.type	_ZNKSt8__detail20_Prime_rehash_policy8_M_stateEv, @function
_ZNKSt8__detail20_Prime_rehash_policy8_M_stateEv:
.LFB2686:
	.cfi_startproc
	endbr64
	pushq	%rbp
	.cfi_def_cfa_offset 16
	.cfi_offset 6, -16
	movq	%rsp, %rbp
	.cfi_def_cfa_register 6
	movq	%rdi, -8(%rbp)
	movq	-8(%rbp), %rax
	movq	8(%rax), %rax
	popq	%rbp
	.cfi_def_cfa 7, 8
	ret
	.cfi_endproc
.LFE2686:
	.size	_ZNKSt8__detail20_Prime_rehash_policy8_M_stateEv, .-_ZNKSt8__detail20_Prime_rehash_policy8_M_stateEv
	.section	.text._ZNSt8__detail20_Prime_rehash_policy8_M_resetEm,"axG",@progbits,_ZNSt8__detail20_Prime_rehash_policy8_M_resetEm,comdat
	.align 2
	.weak	_ZNSt8__detail20_Prime_rehash_policy8_M_resetEm
	.type	_ZNSt8__detail20_Prime_rehash_policy8_M_resetEm, @function
_ZNSt8__detail20_Prime_rehash_policy8_M_resetEm:
.LFB2688:
	.cfi_startproc
	endbr64
	pushq	%rbp
	.cfi_def_cfa_offset 16
	.cfi_offset 6, -16
	movq	%rsp, %rbp
	.cfi_def_cfa_register 6
	movq	%rdi, -8(%rbp)
	movq	%rsi, -16(%rbp)
	movq	-8(%rbp), %rax
	movq	-16(%rbp), %rdx
	movq	%rdx, 8(%rax)
	nop
	popq	%rbp
	.cfi_def_cfa 7, 8
	ret
	.cfi_endproc
.LFE2688:
	.size	_ZNSt8__detail20_Prime_rehash_policy8_M_resetEm, .-_ZNSt8__detail20_Prime_rehash_policy8_M_resetEm
	.section	.text._ZSt3minImERKT_S2_S2_,"axG",@progbits,_ZSt3minImERKT_S2_S2_,comdat
	.weak	_ZSt3minImERKT_S2_S2_
	.type	_ZSt3minImERKT_S2_S2_, @function
_ZSt3minImERKT_S2_S2_:
.LFB2696:
	.cfi_startproc
	endbr64
	pushq	%rbp
	.cfi_def_cfa_offset 16
	.cfi_offset 6, -16
	movq	%rsp, %rbp
	.cfi_def_cfa_register 6
	movq	%rdi, -8(%rbp)
	movq	%rsi, -16(%rbp)
	movq	-16(%rbp), %rax
	movq	(%rax), %rdx
	movq	-8(%rbp), %rax
	movq	(%rax), %rax
	cmpq	%rax, %rdx
	jnb	.L28
	movq	-16(%rbp), %rax
	jmp	.L29
.L28:
	movq	-8(%rbp), %rax
.L29:
	popq	%rbp
	.cfi_def_cfa 7, 8
	ret
	.cfi_endproc
.LFE2696:
	.size	_ZSt3minImERKT_S2_S2_, .-_ZSt3minImERKT_S2_S2_
	.section	.text._ZNSt4pairIKiNSt7__cxx1112basic_stringIcSt11char_traitsIcESaIcEEEED2Ev,"axG",@progbits,_ZNSt4pairIKiNSt7__cxx1112basic_stringIcSt11char_traitsIcESaIcEEEED5Ev,comdat
	.align 2
	.weak	_ZNSt4pairIKiNSt7__cxx1112basic_stringIcSt11char_traitsIcESaIcEEEED2Ev
	.type	_ZNSt4pairIKiNSt7__cxx1112basic_stringIcSt11char_traitsIcESaIcEEEED2Ev, @function
_ZNSt4pairIKiNSt7__cxx1112basic_stringIcSt11char_traitsIcESaIcEEEED2Ev:
.LFB3072:
	.cfi_startproc
	endbr64
	pushq	%rbp
	.cfi_def_cfa_offset 16
	.cfi_offset 6, -16
	movq	%rsp, %rbp
	.cfi_def_cfa_register 6
	subq	$16, %rsp
	movq	%rdi, -8(%rbp)
	movq	-8(%rbp), %rax
	addq	$8, %rax
	movq	%rax, %rdi
	call	_ZNSt7__cxx1112basic_stringIcSt11char_traitsIcESaIcEED1Ev@PLT
	nop
	leave
	.cfi_def_cfa 7, 8
	ret
	.cfi_endproc
.LFE3072:
	.size	_ZNSt4pairIKiNSt7__cxx1112basic_stringIcSt11char_traitsIcESaIcEEEED2Ev, .-_ZNSt4pairIKiNSt7__cxx1112basic_stringIcSt11char_traitsIcESaIcEEEED2Ev
	.weak	_ZNSt4pairIKiNSt7__cxx1112basic_stringIcSt11char_traitsIcESaIcEEEED1Ev
	.set	_ZNSt4pairIKiNSt7__cxx1112basic_stringIcSt11char_traitsIcESaIcEEEED1Ev,_ZNSt4pairIKiNSt7__cxx1112basic_stringIcSt11char_traitsIcESaIcEEEED2Ev
	.section	.text._ZNSt4pairIKiNSt7__cxx1112basic_stringIcSt11char_traitsIcESaIcEEEEC1IiRA2_KcLb1EEEOT_OT0_,"axG",@progbits,_ZNSt4pairIKiNSt7__cxx1112basic_stringIcSt11char_traitsIcESaIcEEEEC1IiRA2_KcLb1EEEOT_OT0_,comdat
	.align 2
	.weak	_ZNSt4pairIKiNSt7__cxx1112basic_stringIcSt11char_traitsIcESaIcEEEEC1IiRA2_KcLb1EEEOT_OT0_
	.type	_ZNSt4pairIKiNSt7__cxx1112basic_stringIcSt11char_traitsIcESaIcEEEEC1IiRA2_KcLb1EEEOT_OT0_, @function
_ZNSt4pairIKiNSt7__cxx1112basic_stringIcSt11char_traitsIcESaIcEEEEC1IiRA2_KcLb1EEEOT_OT0_:
.LFB3076:
	.cfi_startproc
	.cfi_personality 0x9b,DW.ref.__gxx_personality_v0
	.cfi_lsda 0x1b,.LLSDA3076
	endbr64
	pushq	%rbp
	.cfi_def_cfa_offset 16
	.cfi_offset 6, -16
	movq	%rsp, %rbp
	.cfi_def_cfa_register 6
	pushq	%rbx
	subq	$56, %rsp
	.cfi_offset 3, -24
	movq	%rdi, -40(%rbp)
	movq	%rsi, -48(%rbp)
	movq	%rdx, -56(%rbp)
	movq	%fs:40, %rax
	movq	%rax, -24(%rbp)
	xorl	%eax, %eax
	movq	-48(%rbp), %rax
	movq	%rax, %rdi
	call	_ZSt7forwardIiEOT_RNSt16remove_referenceIS0_E4typeE
	movl	(%rax), %edx
	movq	-40(%rbp), %rax
	movl	%edx, (%rax)
	movq	-40(%rbp), %rax
	leaq	8(%rax), %rbx
	leaq	-25(%rbp), %rax
	movq	%rax, %rdi
	call	_ZNSaIcEC1Ev@PLT
	movq	-56(%rbp), %rax
	movq	%rax, %rdi
	call	_ZSt7forwardIRA2_KcEOT_RNSt16remove_referenceIS3_E4typeE
	movq	%rax, %rcx
	leaq	-25(%rbp), %rax
	movq	%rax, %rdx
	movq	%rcx, %rsi
	movq	%rbx, %rdi
.LEHB2:
	call	_ZNSt7__cxx1112basic_stringIcSt11char_traitsIcESaIcEEC1EPKcRKS3_@PLT
.LEHE2:
	leaq	-25(%rbp), %rax
	movq	%rax, %rdi
	call	_ZNSaIcED1Ev@PLT
	nop
	movq	-24(%rbp), %rax
	xorq	%fs:40, %rax
	je	.L33
	jmp	.L35
.L34:
	endbr64
	movq	%rax, %rbx
	leaq	-25(%rbp), %rax
	movq	%rax, %rdi
	call	_ZNSaIcED1Ev@PLT
	movq	%rbx, %rax
	movq	%rax, %rdi
.LEHB3:
	call	_Unwind_Resume@PLT
.LEHE3:
.L35:
	call	__stack_chk_fail@PLT
.L33:
	addq	$56, %rsp
	popq	%rbx
	popq	%rbp
	.cfi_def_cfa 7, 8
	ret
	.cfi_endproc
.LFE3076:
	.section	.gcc_except_table._ZNSt4pairIKiNSt7__cxx1112basic_stringIcSt11char_traitsIcESaIcEEEEC1IiRA2_KcLb1EEEOT_OT0_,"aG",@progbits,_ZNSt4pairIKiNSt7__cxx1112basic_stringIcSt11char_traitsIcESaIcEEEEC1IiRA2_KcLb1EEEOT_OT0_,comdat
.LLSDA3076:
	.byte	0xff
	.byte	0xff
	.byte	0x1
	.uleb128 .LLSDACSE3076-.LLSDACSB3076
.LLSDACSB3076:
	.uleb128 .LEHB2-.LFB3076
	.uleb128 .LEHE2-.LEHB2
	.uleb128 .L34-.LFB3076
	.uleb128 0
	.uleb128 .LEHB3-.LFB3076
	.uleb128 .LEHE3-.LEHB3
	.uleb128 0
	.uleb128 0
.LLSDACSE3076:
	.section	.text._ZNSt4pairIKiNSt7__cxx1112basic_stringIcSt11char_traitsIcESaIcEEEEC1IiRA2_KcLb1EEEOT_OT0_,"axG",@progbits,_ZNSt4pairIKiNSt7__cxx1112basic_stringIcSt11char_traitsIcESaIcEEEEC1IiRA2_KcLb1EEEOT_OT0_,comdat
	.size	_ZNSt4pairIKiNSt7__cxx1112basic_stringIcSt11char_traitsIcESaIcEEEEC1IiRA2_KcLb1EEEOT_OT0_, .-_ZNSt4pairIKiNSt7__cxx1112basic_stringIcSt11char_traitsIcESaIcEEEEC1IiRA2_KcLb1EEEOT_OT0_
	.section	.text._ZNSt4pairIKiNSt7__cxx1112basic_stringIcSt11char_traitsIcESaIcEEEEC1IiRA3_KcLb1EEEOT_OT0_,"axG",@progbits,_ZNSt4pairIKiNSt7__cxx1112basic_stringIcSt11char_traitsIcESaIcEEEEC1IiRA3_KcLb1EEEOT_OT0_,comdat
	.align 2
	.weak	_ZNSt4pairIKiNSt7__cxx1112basic_stringIcSt11char_traitsIcESaIcEEEEC1IiRA3_KcLb1EEEOT_OT0_
	.type	_ZNSt4pairIKiNSt7__cxx1112basic_stringIcSt11char_traitsIcESaIcEEEEC1IiRA3_KcLb1EEEOT_OT0_, @function
_ZNSt4pairIKiNSt7__cxx1112basic_stringIcSt11char_traitsIcESaIcEEEEC1IiRA3_KcLb1EEEOT_OT0_:
.LFB3079:
	.cfi_startproc
	.cfi_personality 0x9b,DW.ref.__gxx_personality_v0
	.cfi_lsda 0x1b,.LLSDA3079
	endbr64
	pushq	%rbp
	.cfi_def_cfa_offset 16
	.cfi_offset 6, -16
	movq	%rsp, %rbp
	.cfi_def_cfa_register 6
	pushq	%rbx
	subq	$56, %rsp
	.cfi_offset 3, -24
	movq	%rdi, -40(%rbp)
	movq	%rsi, -48(%rbp)
	movq	%rdx, -56(%rbp)
	movq	%fs:40, %rax
	movq	%rax, -24(%rbp)
	xorl	%eax, %eax
	movq	-48(%rbp), %rax
	movq	%rax, %rdi
	call	_ZSt7forwardIiEOT_RNSt16remove_referenceIS0_E4typeE
	movl	(%rax), %edx
	movq	-40(%rbp), %rax
	movl	%edx, (%rax)
	movq	-40(%rbp), %rax
	leaq	8(%rax), %rbx
	leaq	-25(%rbp), %rax
	movq	%rax, %rdi
	call	_ZNSaIcEC1Ev@PLT
	movq	-56(%rbp), %rax
	movq	%rax, %rdi
	call	_ZSt7forwardIRA3_KcEOT_RNSt16remove_referenceIS3_E4typeE
	movq	%rax, %rcx
	leaq	-25(%rbp), %rax
	movq	%rax, %rdx
	movq	%rcx, %rsi
	movq	%rbx, %rdi
.LEHB4:
	call	_ZNSt7__cxx1112basic_stringIcSt11char_traitsIcESaIcEEC1EPKcRKS3_@PLT
.LEHE4:
	leaq	-25(%rbp), %rax
	movq	%rax, %rdi
	call	_ZNSaIcED1Ev@PLT
	nop
	movq	-24(%rbp), %rax
	xorq	%fs:40, %rax
	je	.L38
	jmp	.L40
.L39:
	endbr64
	movq	%rax, %rbx
	leaq	-25(%rbp), %rax
	movq	%rax, %rdi
	call	_ZNSaIcED1Ev@PLT
	movq	%rbx, %rax
	movq	%rax, %rdi
.LEHB5:
	call	_Unwind_Resume@PLT
.LEHE5:
.L40:
	call	__stack_chk_fail@PLT
.L38:
	addq	$56, %rsp
	popq	%rbx
	popq	%rbp
	.cfi_def_cfa 7, 8
	ret
	.cfi_endproc
.LFE3079:
	.section	.gcc_except_table._ZNSt4pairIKiNSt7__cxx1112basic_stringIcSt11char_traitsIcESaIcEEEEC1IiRA3_KcLb1EEEOT_OT0_,"aG",@progbits,_ZNSt4pairIKiNSt7__cxx1112basic_stringIcSt11char_traitsIcESaIcEEEEC1IiRA3_KcLb1EEEOT_OT0_,comdat
.LLSDA3079:
	.byte	0xff
	.byte	0xff
	.byte	0x1
	.uleb128 .LLSDACSE3079-.LLSDACSB3079
.LLSDACSB3079:
	.uleb128 .LEHB4-.LFB3079
	.uleb128 .LEHE4-.LEHB4
	.uleb128 .L39-.LFB3079
	.uleb128 0
	.uleb128 .LEHB5-.LFB3079
	.uleb128 .LEHE5-.LEHB5
	.uleb128 0
	.uleb128 0
.LLSDACSE3079:
	.section	.text._ZNSt4pairIKiNSt7__cxx1112basic_stringIcSt11char_traitsIcESaIcEEEEC1IiRA3_KcLb1EEEOT_OT0_,"axG",@progbits,_ZNSt4pairIKiNSt7__cxx1112basic_stringIcSt11char_traitsIcESaIcEEEEC1IiRA3_KcLb1EEEOT_OT0_,comdat
	.size	_ZNSt4pairIKiNSt7__cxx1112basic_stringIcSt11char_traitsIcESaIcEEEEC1IiRA3_KcLb1EEEOT_OT0_, .-_ZNSt4pairIKiNSt7__cxx1112basic_stringIcSt11char_traitsIcESaIcEEEEC1IiRA3_KcLb1EEEOT_OT0_
	.section	.text._ZNSt4pairIKiNSt7__cxx1112basic_stringIcSt11char_traitsIcESaIcEEEEC1IiRA4_KcLb1EEEOT_OT0_,"axG",@progbits,_ZNSt4pairIKiNSt7__cxx1112basic_stringIcSt11char_traitsIcESaIcEEEEC1IiRA4_KcLb1EEEOT_OT0_,comdat
	.align 2
	.weak	_ZNSt4pairIKiNSt7__cxx1112basic_stringIcSt11char_traitsIcESaIcEEEEC1IiRA4_KcLb1EEEOT_OT0_
	.type	_ZNSt4pairIKiNSt7__cxx1112basic_stringIcSt11char_traitsIcESaIcEEEEC1IiRA4_KcLb1EEEOT_OT0_, @function
_ZNSt4pairIKiNSt7__cxx1112basic_stringIcSt11char_traitsIcESaIcEEEEC1IiRA4_KcLb1EEEOT_OT0_:
.LFB3082:
	.cfi_startproc
	.cfi_personality 0x9b,DW.ref.__gxx_personality_v0
	.cfi_lsda 0x1b,.LLSDA3082
	endbr64
	pushq	%rbp
	.cfi_def_cfa_offset 16
	.cfi_offset 6, -16
	movq	%rsp, %rbp
	.cfi_def_cfa_register 6
	pushq	%rbx
	subq	$56, %rsp
	.cfi_offset 3, -24
	movq	%rdi, -40(%rbp)
	movq	%rsi, -48(%rbp)
	movq	%rdx, -56(%rbp)
	movq	%fs:40, %rax
	movq	%rax, -24(%rbp)
	xorl	%eax, %eax
	movq	-48(%rbp), %rax
	movq	%rax, %rdi
	call	_ZSt7forwardIiEOT_RNSt16remove_referenceIS0_E4typeE
	movl	(%rax), %edx
	movq	-40(%rbp), %rax
	movl	%edx, (%rax)
	movq	-40(%rbp), %rax
	leaq	8(%rax), %rbx
	leaq	-25(%rbp), %rax
	movq	%rax, %rdi
	call	_ZNSaIcEC1Ev@PLT
	movq	-56(%rbp), %rax
	movq	%rax, %rdi
	call	_ZSt7forwardIRA4_KcEOT_RNSt16remove_referenceIS3_E4typeE
	movq	%rax, %rcx
	leaq	-25(%rbp), %rax
	movq	%rax, %rdx
	movq	%rcx, %rsi
	movq	%rbx, %rdi
.LEHB6:
	call	_ZNSt7__cxx1112basic_stringIcSt11char_traitsIcESaIcEEC1EPKcRKS3_@PLT
.LEHE6:
	leaq	-25(%rbp), %rax
	movq	%rax, %rdi
	call	_ZNSaIcED1Ev@PLT
	nop
	movq	-24(%rbp), %rax
	xorq	%fs:40, %rax
	je	.L43
	jmp	.L45
.L44:
	endbr64
	movq	%rax, %rbx
	leaq	-25(%rbp), %rax
	movq	%rax, %rdi
	call	_ZNSaIcED1Ev@PLT
	movq	%rbx, %rax
	movq	%rax, %rdi
.LEHB7:
	call	_Unwind_Resume@PLT
.LEHE7:
.L45:
	call	__stack_chk_fail@PLT
.L43:
	addq	$56, %rsp
	popq	%rbx
	popq	%rbp
	.cfi_def_cfa 7, 8
	ret
	.cfi_endproc
.LFE3082:
	.section	.gcc_except_table._ZNSt4pairIKiNSt7__cxx1112basic_stringIcSt11char_traitsIcESaIcEEEEC1IiRA4_KcLb1EEEOT_OT0_,"aG",@progbits,_ZNSt4pairIKiNSt7__cxx1112basic_stringIcSt11char_traitsIcESaIcEEEEC1IiRA4_KcLb1EEEOT_OT0_,comdat
.LLSDA3082:
	.byte	0xff
	.byte	0xff
	.byte	0x1
	.uleb128 .LLSDACSE3082-.LLSDACSB3082
.LLSDACSB3082:
	.uleb128 .LEHB6-.LFB3082
	.uleb128 .LEHE6-.LEHB6
	.uleb128 .L44-.LFB3082
	.uleb128 0
	.uleb128 .LEHB7-.LFB3082
	.uleb128 .LEHE7-.LEHB7
	.uleb128 0
	.uleb128 0
.LLSDACSE3082:
	.section	.text._ZNSt4pairIKiNSt7__cxx1112basic_stringIcSt11char_traitsIcESaIcEEEEC1IiRA4_KcLb1EEEOT_OT0_,"axG",@progbits,_ZNSt4pairIKiNSt7__cxx1112basic_stringIcSt11char_traitsIcESaIcEEEEC1IiRA4_KcLb1EEEOT_OT0_,comdat
	.size	_ZNSt4pairIKiNSt7__cxx1112basic_stringIcSt11char_traitsIcESaIcEEEEC1IiRA4_KcLb1EEEOT_OT0_, .-_ZNSt4pairIKiNSt7__cxx1112basic_stringIcSt11char_traitsIcESaIcEEEEC1IiRA4_KcLb1EEEOT_OT0_
	.section	.text._ZNSt13unordered_mapIiNSt7__cxx1112basic_stringIcSt11char_traitsIcESaIcEEESt4hashIiESt8equal_toIiESaISt4pairIKiS5_EEED2Ev,"axG",@progbits,_ZNSt13unordered_mapIiNSt7__cxx1112basic_stringIcSt11char_traitsIcESaIcEEESt4hashIiESt8equal_toIiESaISt4pairIKiS5_EEED5Ev,comdat
	.align 2
	.weak	_ZNSt13unordered_mapIiNSt7__cxx1112basic_stringIcSt11char_traitsIcESaIcEEESt4hashIiESt8equal_toIiESaISt4pairIKiS5_EEED2Ev
	.type	_ZNSt13unordered_mapIiNSt7__cxx1112basic_stringIcSt11char_traitsIcESaIcEEESt4hashIiESt8equal_toIiESaISt4pairIKiS5_EEED2Ev, @function
_ZNSt13unordered_mapIiNSt7__cxx1112basic_stringIcSt11char_traitsIcESaIcEEESt4hashIiESt8equal_toIiESaISt4pairIKiS5_EEED2Ev:
.LFB3084:
	.cfi_startproc
	endbr64
	pushq	%rbp
	.cfi_def_cfa_offset 16
	.cfi_offset 6, -16
	movq	%rsp, %rbp
	.cfi_def_cfa_register 6
	subq	$16, %rsp
	movq	%rdi, -8(%rbp)
	movq	-8(%rbp), %rax
	movq	%rax, %rdi
	call	_ZNSt10_HashtableIiSt4pairIKiNSt7__cxx1112basic_stringIcSt11char_traitsIcESaIcEEEESaIS8_ENSt8__detail10_Select1stESt8equal_toIiESt4hashIiENSA_18_Mod_range_hashingENSA_20_Default_ranged_hashENSA_20_Prime_rehash_policyENSA_17_Hashtable_traitsILb0ELb0ELb1EEEED1Ev
	nop
	leave
	.cfi_def_cfa 7, 8
	ret
	.cfi_endproc
.LFE3084:
	.size	_ZNSt13unordered_mapIiNSt7__cxx1112basic_stringIcSt11char_traitsIcESaIcEEESt4hashIiESt8equal_toIiESaISt4pairIKiS5_EEED2Ev, .-_ZNSt13unordered_mapIiNSt7__cxx1112basic_stringIcSt11char_traitsIcESaIcEEESt4hashIiESt8equal_toIiESaISt4pairIKiS5_EEED2Ev
	.weak	_ZNSt13unordered_mapIiNSt7__cxx1112basic_stringIcSt11char_traitsIcESaIcEEESt4hashIiESt8equal_toIiESaISt4pairIKiS5_EEED1Ev
	.set	_ZNSt13unordered_mapIiNSt7__cxx1112basic_stringIcSt11char_traitsIcESaIcEEESt4hashIiESt8equal_toIiESaISt4pairIKiS5_EEED1Ev,_ZNSt13unordered_mapIiNSt7__cxx1112basic_stringIcSt11char_traitsIcESaIcEEESt4hashIiESt8equal_toIiESaISt4pairIKiS5_EEED2Ev
	.globl	_Z4gopsB5cxx11
	.bss
	.align 32
	.type	_Z4gopsB5cxx11, @object
	.size	_Z4gopsB5cxx11, 56
_Z4gopsB5cxx11:
	.zero	56
	.text
	.align 2
	.globl	_ZN10FactorNodeD2Ev
	.type	_ZN10FactorNodeD2Ev, @function
_ZN10FactorNodeD2Ev:
.LFB3087:
	.cfi_startproc
	endbr64
	pushq	%rbp
	.cfi_def_cfa_offset 16
	.cfi_offset 6, -16
	movq	%rsp, %rbp
	.cfi_def_cfa_register 6
	movq	%rdi, -8(%rbp)
	leaq	16+_ZTV10FactorNode(%rip), %rdx
	movq	-8(%rbp), %rax
	movq	%rdx, (%rax)
	nop
	popq	%rbp
	.cfi_def_cfa 7, 8
	ret
	.cfi_endproc
.LFE3087:
	.size	_ZN10FactorNodeD2Ev, .-_ZN10FactorNodeD2Ev
	.globl	_ZN10FactorNodeD1Ev
	.set	_ZN10FactorNodeD1Ev,_ZN10FactorNodeD2Ev
	.align 2
	.globl	_ZN10FactorNodeD0Ev
	.type	_ZN10FactorNodeD0Ev, @function
_ZN10FactorNodeD0Ev:
.LFB3089:
	.cfi_startproc
	endbr64
	pushq	%rbp
	.cfi_def_cfa_offset 16
	.cfi_offset 6, -16
	movq	%rsp, %rbp
	.cfi_def_cfa_register 6
	subq	$16, %rsp
	movq	%rdi, -8(%rbp)
	movq	-8(%rbp), %rax
	movq	%rax, %rdi
	call	_ZN10FactorNodeD1Ev
	movq	-8(%rbp), %rax
	movl	$8, %esi
	movq	%rax, %rdi
	call	_ZdlPvm@PLT
	leave
	.cfi_def_cfa 7, 8
	ret
	.cfi_endproc
.LFE3089:
	.size	_ZN10FactorNodeD0Ev, .-_ZN10FactorNodeD0Ev
	.globl	_ZlsRSoR10FactorNode
	.type	_ZlsRSoR10FactorNode, @function
_ZlsRSoR10FactorNode:
.LFB3090:
	.cfi_startproc
	endbr64
	pushq	%rbp
	.cfi_def_cfa_offset 16
	.cfi_offset 6, -16
	movq	%rsp, %rbp
	.cfi_def_cfa_register 6
	subq	$16, %rsp
	movq	%rdi, -8(%rbp)
	movq	%rsi, -16(%rbp)
	movq	-16(%rbp), %rax
	movq	(%rax), %rax
	movq	(%rax), %rcx
	movq	-8(%rbp), %rdx
	movq	-16(%rbp), %rax
	movq	%rdx, %rsi
	movq	%rax, %rdi
	call	*%rcx
	movq	-8(%rbp), %rax
	leave
	.cfi_def_cfa 7, 8
	ret
	.cfi_endproc
.LFE3090:
	.size	_ZlsRSoR10FactorNode, .-_ZlsRSoR10FactorNode
	.section	.text._ZN10FactorNodeC2Ev,"axG",@progbits,_ZN10FactorNodeC5Ev,comdat
	.align 2
	.weak	_ZN10FactorNodeC2Ev
	.type	_ZN10FactorNodeC2Ev, @function
_ZN10FactorNodeC2Ev:
.LFB3093:
	.cfi_startproc
	endbr64
	pushq	%rbp
	.cfi_def_cfa_offset 16
	.cfi_offset 6, -16
	movq	%rsp, %rbp
	.cfi_def_cfa_register 6
	movq	%rdi, -8(%rbp)
	leaq	16+_ZTV10FactorNode(%rip), %rdx
	movq	-8(%rbp), %rax
	movq	%rdx, (%rax)
	nop
	popq	%rbp
	.cfi_def_cfa 7, 8
	ret
	.cfi_endproc
.LFE3093:
	.size	_ZN10FactorNodeC2Ev, .-_ZN10FactorNodeC2Ev
	.weak	_ZN10FactorNodeC1Ev
	.set	_ZN10FactorNodeC1Ev,_ZN10FactorNodeC2Ev
	.text
	.align 2
	.globl	_ZN6IdNodeC2ENSt7__cxx1112basic_stringIcSt11char_traitsIcESaIcEEE
	.type	_ZN6IdNodeC2ENSt7__cxx1112basic_stringIcSt11char_traitsIcESaIcEEE, @function
_ZN6IdNodeC2ENSt7__cxx1112basic_stringIcSt11char_traitsIcESaIcEEE:
.LFB3095:
	.cfi_startproc
	.cfi_personality 0x9b,DW.ref.__gxx_personality_v0
	.cfi_lsda 0x1b,.LLSDA3095
	endbr64
	pushq	%rbp
	.cfi_def_cfa_offset 16
	.cfi_offset 6, -16
	movq	%rsp, %rbp
	.cfi_def_cfa_register 6
	pushq	%r12
	pushq	%rbx
	subq	$16, %rsp
	.cfi_offset 12, -24
	.cfi_offset 3, -32
	movq	%rdi, -24(%rbp)
	movq	%rsi, -32(%rbp)
	movq	-24(%rbp), %rax
	movq	%rax, %rdi
	call	_ZN10FactorNodeC2Ev
	leaq	16+_ZTV6IdNode(%rip), %rdx
	movq	-24(%rbp), %rax
	movq	%rdx, (%rax)
	movq	-24(%rbp), %rax
	movq	$0, 8(%rax)
	movl	$32, %edi
.LEHB8:
	call	_Znwm@PLT
.LEHE8:
	movq	%rax, %rbx
	movq	-32(%rbp), %rax
	movq	%rax, %rsi
	movq	%rbx, %rdi
.LEHB9:
	call	_ZNSt7__cxx1112basic_stringIcSt11char_traitsIcESaIcEEC1ERKS4_@PLT
.LEHE9:
	movq	-24(%rbp), %rax
	movq	%rbx, 8(%rax)
	jmp	.L57
.L56:
	endbr64
	movq	%rax, %r12
	movl	$32, %esi
	movq	%rbx, %rdi
	call	_ZdlPvm@PLT
	movq	%r12, %rbx
	jmp	.L54
.L55:
	endbr64
	movq	%rax, %rbx
.L54:
	movq	-24(%rbp), %rax
	movq	%rax, %rdi
	call	_ZN10FactorNodeD2Ev
	movq	%rbx, %rax
	movq	%rax, %rdi
.LEHB10:
	call	_Unwind_Resume@PLT
.LEHE10:
.L57:
	addq	$16, %rsp
	popq	%rbx
	popq	%r12
	popq	%rbp
	.cfi_def_cfa 7, 8
	ret
	.cfi_endproc
.LFE3095:
	.section	.gcc_except_table,"a",@progbits
.LLSDA3095:
	.byte	0xff
	.byte	0xff
	.byte	0x1
	.uleb128 .LLSDACSE3095-.LLSDACSB3095
.LLSDACSB3095:
	.uleb128 .LEHB8-.LFB3095
	.uleb128 .LEHE8-.LEHB8
	.uleb128 .L55-.LFB3095
	.uleb128 0
	.uleb128 .LEHB9-.LFB3095
	.uleb128 .LEHE9-.LEHB9
	.uleb128 .L56-.LFB3095
	.uleb128 0
	.uleb128 .LEHB10-.LFB3095
	.uleb128 .LEHE10-.LEHB10
	.uleb128 0
	.uleb128 0
.LLSDACSE3095:
	.text
	.size	_ZN6IdNodeC2ENSt7__cxx1112basic_stringIcSt11char_traitsIcESaIcEEE, .-_ZN6IdNodeC2ENSt7__cxx1112basic_stringIcSt11char_traitsIcESaIcEEE
	.globl	_ZN6IdNodeC1ENSt7__cxx1112basic_stringIcSt11char_traitsIcESaIcEEE
	.set	_ZN6IdNodeC1ENSt7__cxx1112basic_stringIcSt11char_traitsIcESaIcEEE,_ZN6IdNodeC2ENSt7__cxx1112basic_stringIcSt11char_traitsIcESaIcEEE
	.section	.rodata
.LC6:
	.string	"Deleting a factorNode"
	.text
	.align 2
	.globl	_ZN6IdNodeD2Ev
	.type	_ZN6IdNodeD2Ev, @function
_ZN6IdNodeD2Ev:
.LFB3098:
	.cfi_startproc
	.cfi_personality 0x9b,DW.ref.__gxx_personality_v0
	.cfi_lsda 0x1b,.LLSDA3098
	endbr64
	pushq	%rbp
	.cfi_def_cfa_offset 16
	.cfi_offset 6, -16
	movq	%rsp, %rbp
	.cfi_def_cfa_register 6
	pushq	%rbx
	subq	$24, %rsp
	.cfi_offset 3, -24
	movq	%rdi, -24(%rbp)
	leaq	16+_ZTV6IdNode(%rip), %rdx
	movq	-24(%rbp), %rax
	movq	%rdx, (%rax)
	leaq	.LC6(%rip), %rsi
	leaq	_ZSt4cout(%rip), %rdi
	call	_ZStlsISt11char_traitsIcEERSt13basic_ostreamIcT_ES5_PKc@PLT
	movq	%rax, %rdx
	movq	_ZSt4endlIcSt11char_traitsIcEERSt13basic_ostreamIT_T0_ES6_@GOTPCREL(%rip), %rax
	movq	%rax, %rsi
	movq	%rdx, %rdi
	call	_ZNSolsEPFRSoS_E@PLT
	movq	-24(%rbp), %rax
	movq	8(%rax), %rbx
	testq	%rbx, %rbx
	je	.L59
	movq	%rbx, %rdi
	call	_ZNSt7__cxx1112basic_stringIcSt11char_traitsIcESaIcEED1Ev@PLT
	movl	$32, %esi
	movq	%rbx, %rdi
	call	_ZdlPvm@PLT
.L59:
	movq	-24(%rbp), %rax
	movq	$0, 8(%rax)
	movq	-24(%rbp), %rax
	movq	%rax, %rdi
	call	_ZN10FactorNodeD2Ev
	nop
	addq	$24, %rsp
	popq	%rbx
	popq	%rbp
	.cfi_def_cfa 7, 8
	ret
	.cfi_endproc
.LFE3098:
	.section	.gcc_except_table
.LLSDA3098:
	.byte	0xff
	.byte	0xff
	.byte	0x1
	.uleb128 .LLSDACSE3098-.LLSDACSB3098
.LLSDACSB3098:
.LLSDACSE3098:
	.text
	.size	_ZN6IdNodeD2Ev, .-_ZN6IdNodeD2Ev
	.globl	_ZN6IdNodeD1Ev
	.set	_ZN6IdNodeD1Ev,_ZN6IdNodeD2Ev
	.align 2
	.globl	_ZN6IdNodeD0Ev
	.type	_ZN6IdNodeD0Ev, @function
_ZN6IdNodeD0Ev:
.LFB3100:
	.cfi_startproc
	endbr64
	pushq	%rbp
	.cfi_def_cfa_offset 16
	.cfi_offset 6, -16
	movq	%rsp, %rbp
	.cfi_def_cfa_register 6
	subq	$16, %rsp
	movq	%rdi, -8(%rbp)
	movq	-8(%rbp), %rax
	movq	%rax, %rdi
	call	_ZN6IdNodeD1Ev
	movq	-8(%rbp), %rax
	movl	$16, %esi
	movq	%rax, %rdi
	call	_ZdlPvm@PLT
	leave
	.cfi_def_cfa 7, 8
	ret
	.cfi_endproc
.LFE3100:
	.size	_ZN6IdNodeD0Ev, .-_ZN6IdNodeD0Ev
	.section	.rodata
.LC7:
	.string	"factor( "
.LC8:
	.string	" ) "
	.text
	.align 2
	.globl	_ZN6IdNode7printToERSo
	.type	_ZN6IdNode7printToERSo, @function
_ZN6IdNode7printToERSo:
.LFB3101:
	.cfi_startproc
	endbr64
	pushq	%rbp
	.cfi_def_cfa_offset 16
	.cfi_offset 6, -16
	movq	%rsp, %rbp
	.cfi_def_cfa_register 6
	subq	$16, %rsp
	movq	%rdi, -8(%rbp)
	movq	%rsi, -16(%rbp)
	movq	-16(%rbp), %rax
	leaq	.LC7(%rip), %rsi
	movq	%rax, %rdi
	call	_ZStlsISt11char_traitsIcEERSt13basic_ostreamIcT_ES5_PKc@PLT
	movq	%rax, %rdx
	movq	-8(%rbp), %rax
	movq	8(%rax), %rax
	movq	%rax, %rsi
	movq	%rdx, %rdi
	call	_ZStlsIcSt11char_traitsIcESaIcEERSt13basic_ostreamIT_T0_ES7_RKNSt7__cxx1112basic_stringIS4_S5_T1_EE@PLT
	leaq	.LC8(%rip), %rsi
	movq	%rax, %rdi
	call	_ZStlsISt11char_traitsIcEERSt13basic_ostreamIcT_ES5_PKc@PLT
	nop
	leave
	.cfi_def_cfa 7, 8
	ret
	.cfi_endproc
.LFE3101:
	.size	_ZN6IdNode7printToERSo, .-_ZN6IdNode7printToERSo
	.align 2
	.globl	_ZN12FloatLitNodeC2Ef
	.type	_ZN12FloatLitNodeC2Ef, @function
_ZN12FloatLitNodeC2Ef:
.LFB3103:
	.cfi_startproc
	endbr64
	pushq	%rbp
	.cfi_def_cfa_offset 16
	.cfi_offset 6, -16
	movq	%rsp, %rbp
	.cfi_def_cfa_register 6
	subq	$16, %rsp
	movq	%rdi, -8(%rbp)
	movss	%xmm0, -12(%rbp)
	movq	-8(%rbp), %rax
	movq	%rax, %rdi
	call	_ZN10FactorNodeC2Ev
	leaq	16+_ZTV12FloatLitNode(%rip), %rdx
	movq	-8(%rbp), %rax
	movq	%rdx, (%rax)
	movq	-8(%rbp), %rax
	pxor	%xmm0, %xmm0
	movss	%xmm0, 8(%rax)
	movq	-8(%rbp), %rax
	movss	-12(%rbp), %xmm0
	movss	%xmm0, 8(%rax)
	nop
	leave
	.cfi_def_cfa 7, 8
	ret
	.cfi_endproc
.LFE3103:
	.size	_ZN12FloatLitNodeC2Ef, .-_ZN12FloatLitNodeC2Ef
	.globl	_ZN12FloatLitNodeC1Ef
	.set	_ZN12FloatLitNodeC1Ef,_ZN12FloatLitNodeC2Ef
	.align 2
	.globl	_ZN12FloatLitNodeD2Ev
	.type	_ZN12FloatLitNodeD2Ev, @function
_ZN12FloatLitNodeD2Ev:
.LFB3106:
	.cfi_startproc
	.cfi_personality 0x9b,DW.ref.__gxx_personality_v0
	.cfi_lsda 0x1b,.LLSDA3106
	endbr64
	pushq	%rbp
	.cfi_def_cfa_offset 16
	.cfi_offset 6, -16
	movq	%rsp, %rbp
	.cfi_def_cfa_register 6
	subq	$16, %rsp
	movq	%rdi, -8(%rbp)
	leaq	16+_ZTV12FloatLitNode(%rip), %rdx
	movq	-8(%rbp), %rax
	movq	%rdx, (%rax)
	leaq	.LC6(%rip), %rsi
	leaq	_ZSt4cout(%rip), %rdi
	call	_ZStlsISt11char_traitsIcEERSt13basic_ostreamIcT_ES5_PKc@PLT
	movq	%rax, %rdx
	movq	_ZSt4endlIcSt11char_traitsIcEERSt13basic_ostreamIT_T0_ES6_@GOTPCREL(%rip), %rax
	movq	%rax, %rsi
	movq	%rdx, %rdi
	call	_ZNSolsEPFRSoS_E@PLT
	movq	-8(%rbp), %rax
	movq	%rax, %rdi
	call	_ZN10FactorNodeD2Ev
	nop
	leave
	.cfi_def_cfa 7, 8
	ret
	.cfi_endproc
.LFE3106:
	.section	.gcc_except_table
.LLSDA3106:
	.byte	0xff
	.byte	0xff
	.byte	0x1
	.uleb128 .LLSDACSE3106-.LLSDACSB3106
.LLSDACSB3106:
.LLSDACSE3106:
	.text
	.size	_ZN12FloatLitNodeD2Ev, .-_ZN12FloatLitNodeD2Ev
	.globl	_ZN12FloatLitNodeD1Ev
	.set	_ZN12FloatLitNodeD1Ev,_ZN12FloatLitNodeD2Ev
	.align 2
	.globl	_ZN12FloatLitNodeD0Ev
	.type	_ZN12FloatLitNodeD0Ev, @function
_ZN12FloatLitNodeD0Ev:
.LFB3108:
	.cfi_startproc
	endbr64
	pushq	%rbp
	.cfi_def_cfa_offset 16
	.cfi_offset 6, -16
	movq	%rsp, %rbp
	.cfi_def_cfa_register 6
	subq	$16, %rsp
	movq	%rdi, -8(%rbp)
	movq	-8(%rbp), %rax
	movq	%rax, %rdi
	call	_ZN12FloatLitNodeD1Ev
	movq	-8(%rbp), %rax
	movl	$16, %esi
	movq	%rax, %rdi
	call	_ZdlPvm@PLT
	leave
	.cfi_def_cfa 7, 8
	ret
	.cfi_endproc
.LFE3108:
	.size	_ZN12FloatLitNodeD0Ev, .-_ZN12FloatLitNodeD0Ev
	.align 2
	.globl	_ZN12FloatLitNode7printToERSo
	.type	_ZN12FloatLitNode7printToERSo, @function
_ZN12FloatLitNode7printToERSo:
.LFB3109:
	.cfi_startproc
	endbr64
	pushq	%rbp
	.cfi_def_cfa_offset 16
	.cfi_offset 6, -16
	movq	%rsp, %rbp
	.cfi_def_cfa_register 6
	subq	$16, %rsp
	movq	%rdi, -8(%rbp)
	movq	%rsi, -16(%rbp)
	movq	-16(%rbp), %rax
	leaq	.LC7(%rip), %rsi
	movq	%rax, %rdi
	call	_ZStlsISt11char_traitsIcEERSt13basic_ostreamIcT_ES5_PKc@PLT
	movq	%rax, %rdx
	movq	-8(%rbp), %rax
	movl	8(%rax), %eax
	movd	%eax, %xmm0
	movq	%rdx, %rdi
	call	_ZNSolsEf@PLT
	leaq	.LC8(%rip), %rsi
	movq	%rax, %rdi
	call	_ZStlsISt11char_traitsIcEERSt13basic_ostreamIcT_ES5_PKc@PLT
	nop
	leave
	.cfi_def_cfa 7, 8
	ret
	.cfi_endproc
.LFE3109:
	.size	_ZN12FloatLitNode7printToERSo, .-_ZN12FloatLitNode7printToERSo
	.align 2
	.globl	_ZN10IntLitNodeC2Ei
	.type	_ZN10IntLitNodeC2Ei, @function
_ZN10IntLitNodeC2Ei:
.LFB3111:
	.cfi_startproc
	endbr64
	pushq	%rbp
	.cfi_def_cfa_offset 16
	.cfi_offset 6, -16
	movq	%rsp, %rbp
	.cfi_def_cfa_register 6
	subq	$16, %rsp
	movq	%rdi, -8(%rbp)
	movl	%esi, -12(%rbp)
	movq	-8(%rbp), %rax
	movq	%rax, %rdi
	call	_ZN10FactorNodeC2Ev
	leaq	16+_ZTV10IntLitNode(%rip), %rdx
	movq	-8(%rbp), %rax
	movq	%rdx, (%rax)
	movq	-8(%rbp), %rax
	movl	$0, 8(%rax)
	movq	-8(%rbp), %rax
	movl	-12(%rbp), %edx
	movl	%edx, 8(%rax)
	nop
	leave
	.cfi_def_cfa 7, 8
	ret
	.cfi_endproc
.LFE3111:
	.size	_ZN10IntLitNodeC2Ei, .-_ZN10IntLitNodeC2Ei
	.globl	_ZN10IntLitNodeC1Ei
	.set	_ZN10IntLitNodeC1Ei,_ZN10IntLitNodeC2Ei
	.align 2
	.globl	_ZN10IntLitNodeD2Ev
	.type	_ZN10IntLitNodeD2Ev, @function
_ZN10IntLitNodeD2Ev:
.LFB3114:
	.cfi_startproc
	.cfi_personality 0x9b,DW.ref.__gxx_personality_v0
	.cfi_lsda 0x1b,.LLSDA3114
	endbr64
	pushq	%rbp
	.cfi_def_cfa_offset 16
	.cfi_offset 6, -16
	movq	%rsp, %rbp
	.cfi_def_cfa_register 6
	subq	$16, %rsp
	movq	%rdi, -8(%rbp)
	leaq	16+_ZTV10IntLitNode(%rip), %rdx
	movq	-8(%rbp), %rax
	movq	%rdx, (%rax)
	leaq	.LC6(%rip), %rsi
	leaq	_ZSt4cout(%rip), %rdi
	call	_ZStlsISt11char_traitsIcEERSt13basic_ostreamIcT_ES5_PKc@PLT
	movq	%rax, %rdx
	movq	_ZSt4endlIcSt11char_traitsIcEERSt13basic_ostreamIT_T0_ES6_@GOTPCREL(%rip), %rax
	movq	%rax, %rsi
	movq	%rdx, %rdi
	call	_ZNSolsEPFRSoS_E@PLT
	movq	-8(%rbp), %rax
	movq	%rax, %rdi
	call	_ZN10FactorNodeD2Ev
	nop
	leave
	.cfi_def_cfa 7, 8
	ret
	.cfi_endproc
.LFE3114:
	.section	.gcc_except_table
.LLSDA3114:
	.byte	0xff
	.byte	0xff
	.byte	0x1
	.uleb128 .LLSDACSE3114-.LLSDACSB3114
.LLSDACSB3114:
.LLSDACSE3114:
	.text
	.size	_ZN10IntLitNodeD2Ev, .-_ZN10IntLitNodeD2Ev
	.globl	_ZN10IntLitNodeD1Ev
	.set	_ZN10IntLitNodeD1Ev,_ZN10IntLitNodeD2Ev
	.align 2
	.globl	_ZN10IntLitNodeD0Ev
	.type	_ZN10IntLitNodeD0Ev, @function
_ZN10IntLitNodeD0Ev:
.LFB3116:
	.cfi_startproc
	endbr64
	pushq	%rbp
	.cfi_def_cfa_offset 16
	.cfi_offset 6, -16
	movq	%rsp, %rbp
	.cfi_def_cfa_register 6
	subq	$16, %rsp
	movq	%rdi, -8(%rbp)
	movq	-8(%rbp), %rax
	movq	%rax, %rdi
	call	_ZN10IntLitNodeD1Ev
	movq	-8(%rbp), %rax
	movl	$16, %esi
	movq	%rax, %rdi
	call	_ZdlPvm@PLT
	leave
	.cfi_def_cfa 7, 8
	ret
	.cfi_endproc
.LFE3116:
	.size	_ZN10IntLitNodeD0Ev, .-_ZN10IntLitNodeD0Ev
	.align 2
	.globl	_ZN10IntLitNode7printToERSo
	.type	_ZN10IntLitNode7printToERSo, @function
_ZN10IntLitNode7printToERSo:
.LFB3117:
	.cfi_startproc
	endbr64
	pushq	%rbp
	.cfi_def_cfa_offset 16
	.cfi_offset 6, -16
	movq	%rsp, %rbp
	.cfi_def_cfa_register 6
	subq	$16, %rsp
	movq	%rdi, -8(%rbp)
	movq	%rsi, -16(%rbp)
	movq	-16(%rbp), %rax
	leaq	.LC7(%rip), %rsi
	movq	%rax, %rdi
	call	_ZStlsISt11char_traitsIcEERSt13basic_ostreamIcT_ES5_PKc@PLT
	movq	%rax, %rdx
	movq	-8(%rbp), %rax
	movl	8(%rax), %eax
	movl	%eax, %esi
	movq	%rdx, %rdi
	call	_ZNSolsEi@PLT
	leaq	.LC8(%rip), %rsi
	movq	%rax, %rdi
	call	_ZStlsISt11char_traitsIcEERSt13basic_ostreamIcT_ES5_PKc@PLT
	nop
	leave
	.cfi_def_cfa 7, 8
	ret
	.cfi_endproc
.LFE3117:
	.size	_ZN10IntLitNode7printToERSo, .-_ZN10IntLitNode7printToERSo
	.align 2
	.globl	_ZN14NestedExprNodeC2EP8ExprNode
	.type	_ZN14NestedExprNodeC2EP8ExprNode, @function
_ZN14NestedExprNodeC2EP8ExprNode:
.LFB3119:
	.cfi_startproc
	endbr64
	pushq	%rbp
	.cfi_def_cfa_offset 16
	.cfi_offset 6, -16
	movq	%rsp, %rbp
	.cfi_def_cfa_register 6
	subq	$16, %rsp
	movq	%rdi, -8(%rbp)
	movq	%rsi, -16(%rbp)
	movq	-8(%rbp), %rax
	movq	%rax, %rdi
	call	_ZN10FactorNodeC2Ev
	leaq	16+_ZTV14NestedExprNode(%rip), %rdx
	movq	-8(%rbp), %rax
	movq	%rdx, (%rax)
	movq	-8(%rbp), %rax
	movq	$0, 8(%rax)
	movq	-8(%rbp), %rax
	movq	-16(%rbp), %rdx
	movq	%rdx, 8(%rax)
	nop
	leave
	.cfi_def_cfa 7, 8
	ret
	.cfi_endproc
.LFE3119:
	.size	_ZN14NestedExprNodeC2EP8ExprNode, .-_ZN14NestedExprNodeC2EP8ExprNode
	.globl	_ZN14NestedExprNodeC1EP8ExprNode
	.set	_ZN14NestedExprNodeC1EP8ExprNode,_ZN14NestedExprNodeC2EP8ExprNode
	.section	.rodata
.LC10:
	.string	"nested_expression( "
	.text
	.align 2
	.globl	_ZN14NestedExprNode7printToERSo
	.type	_ZN14NestedExprNode7printToERSo, @function
_ZN14NestedExprNode7printToERSo:
.LFB3121:
	.cfi_startproc
	endbr64
	pushq	%rbp
	.cfi_def_cfa_offset 16
	.cfi_offset 6, -16
	movq	%rsp, %rbp
	.cfi_def_cfa_register 6
	subq	$16, %rsp
	movq	%rdi, -8(%rbp)
	movq	%rsi, -16(%rbp)
	movq	-16(%rbp), %rax
	leaq	.LC10(%rip), %rsi
	movq	%rax, %rdi
	call	_ZStlsISt11char_traitsIcEERSt13basic_ostreamIcT_ES5_PKc@PLT
	movq	%rax, %rdx
	movq	-8(%rbp), %rax
	movq	8(%rax), %rax
	movq	%rax, %rsi
	movq	%rdx, %rdi
	call	_ZlsRSoR8ExprNode
	leaq	.LC8(%rip), %rsi
	movq	%rax, %rdi
	call	_ZStlsISt11char_traitsIcEERSt13basic_ostreamIcT_ES5_PKc@PLT
	nop
	leave
	.cfi_def_cfa 7, 8
	ret
	.cfi_endproc
.LFE3121:
	.size	_ZN14NestedExprNode7printToERSo, .-_ZN14NestedExprNode7printToERSo
	.section	.rodata
.LC11:
	.string	"term( "
.LC12:
	.string	"* "
.LC13:
	.string	"/ "
.LC14:
	.string	") "
	.text
	.globl	_ZlsRSoR8TermNode
	.type	_ZlsRSoR8TermNode, @function
_ZlsRSoR8TermNode:
.LFB3122:
	.cfi_startproc
	endbr64
	pushq	%rbp
	.cfi_def_cfa_offset 16
	.cfi_offset 6, -16
	movq	%rsp, %rbp
	.cfi_def_cfa_register 6
	subq	$32, %rsp
	movq	%rdi, -24(%rbp)
	movq	%rsi, -32(%rbp)
	movq	-24(%rbp), %rax
	leaq	.LC11(%rip), %rsi
	movq	%rax, %rdi
	call	_ZStlsISt11char_traitsIcEERSt13basic_ostreamIcT_ES5_PKc@PLT
	movq	-32(%rbp), %rax
	movq	(%rax), %rdx
	movq	-24(%rbp), %rax
	movq	%rdx, %rsi
	movq	%rax, %rdi
	call	_ZlsRSoR10FactorNode
	movq	-32(%rbp), %rax
	addq	$8, %rax
	movq	%rax, %rdi
	call	_ZNKSt6vectorIiSaIiEE4sizeEv
	movl	%eax, -8(%rbp)
	movl	$0, -12(%rbp)
.L76:
	movl	-12(%rbp), %eax
	cmpl	-8(%rbp), %eax
	jge	.L73
	movl	-12(%rbp), %eax
	cltq
	movq	-32(%rbp), %rdx
	addq	$8, %rdx
	movq	%rax, %rsi
	movq	%rdx, %rdi
	call	_ZNSt6vectorIiSaIiEEixEm
	movl	(%rax), %eax
	movl	%eax, -4(%rbp)
	cmpl	$3002, -4(%rbp)
	jne	.L74
	movq	-24(%rbp), %rax
	leaq	.LC12(%rip), %rsi
	movq	%rax, %rdi
	call	_ZStlsISt11char_traitsIcEERSt13basic_ostreamIcT_ES5_PKc@PLT
	jmp	.L75
.L74:
	movq	-24(%rbp), %rax
	leaq	.LC13(%rip), %rsi
	movq	%rax, %rdi
	call	_ZStlsISt11char_traitsIcEERSt13basic_ostreamIcT_ES5_PKc@PLT
.L75:
	movl	-12(%rbp), %eax
	cltq
	movq	-32(%rbp), %rdx
	addq	$32, %rdx
	movq	%rax, %rsi
	movq	%rdx, %rdi
	call	_ZNSt6vectorIP10FactorNodeSaIS1_EEixEm
	movq	(%rax), %rdx
	movq	-24(%rbp), %rax
	movq	%rdx, %rsi
	movq	%rax, %rdi
	call	_ZlsRSoR10FactorNode
	addl	$1, -12(%rbp)
	jmp	.L76
.L73:
	movq	-24(%rbp), %rax
	leaq	.LC14(%rip), %rsi
	movq	%rax, %rdi
	call	_ZStlsISt11char_traitsIcEERSt13basic_ostreamIcT_ES5_PKc@PLT
	movq	-24(%rbp), %rax
	leave
	.cfi_def_cfa 7, 8
	ret
	.cfi_endproc
.LFE3122:
	.size	_ZlsRSoR8TermNode, .-_ZlsRSoR8TermNode
	.section	.rodata
.LC15:
	.string	"Deleting a termNode"
	.text
	.align 2
	.globl	_ZN8TermNodeD2Ev
	.type	_ZN8TermNodeD2Ev, @function
_ZN8TermNodeD2Ev:
.LFB3124:
	.cfi_startproc
	.cfi_personality 0x9b,DW.ref.__gxx_personality_v0
	.cfi_lsda 0x1b,.LLSDA3124
	endbr64
	pushq	%rbp
	.cfi_def_cfa_offset 16
	.cfi_offset 6, -16
	movq	%rsp, %rbp
	.cfi_def_cfa_register 6
	subq	$32, %rsp
	movq	%rdi, -24(%rbp)
	leaq	.LC15(%rip), %rsi
	leaq	_ZSt4cout(%rip), %rdi
	call	_ZStlsISt11char_traitsIcEERSt13basic_ostreamIcT_ES5_PKc@PLT
	movq	%rax, %rdx
	movq	_ZSt4endlIcSt11char_traitsIcEERSt13basic_ostreamIT_T0_ES6_@GOTPCREL(%rip), %rax
	movq	%rax, %rsi
	movq	%rdx, %rdi
	call	_ZNSolsEPFRSoS_E@PLT
	movq	-24(%rbp), %rax
	movq	(%rax), %rax
	testq	%rax, %rax
	je	.L79
	movq	(%rax), %rdx
	addq	$16, %rdx
	movq	(%rdx), %rdx
	movq	%rax, %rdi
	call	*%rdx
.L79:
	movq	-24(%rbp), %rax
	movq	$0, (%rax)
	movq	-24(%rbp), %rax
	addq	$8, %rax
	movq	%rax, %rdi
	call	_ZNKSt6vectorIiSaIiEE4sizeEv
	movl	%eax, -4(%rbp)
	movl	$0, -8(%rbp)
.L82:
	movl	-8(%rbp), %eax
	cmpl	-4(%rbp), %eax
	jge	.L80
	movl	-8(%rbp), %eax
	cltq
	movq	-24(%rbp), %rdx
	addq	$32, %rdx
	movq	%rax, %rsi
	movq	%rdx, %rdi
	call	_ZNSt6vectorIP10FactorNodeSaIS1_EEixEm
	movq	(%rax), %rax
	testq	%rax, %rax
	je	.L81
	movq	(%rax), %rdx
	addq	$16, %rdx
	movq	(%rdx), %rdx
	movq	%rax, %rdi
	call	*%rdx
.L81:
	movl	-8(%rbp), %eax
	cltq
	movq	-24(%rbp), %rdx
	addq	$32, %rdx
	movq	%rax, %rsi
	movq	%rdx, %rdi
	call	_ZNSt6vectorIP10FactorNodeSaIS1_EEixEm
	movq	$0, (%rax)
	addl	$1, -8(%rbp)
	jmp	.L82
.L80:
	movq	-24(%rbp), %rax
	addq	$32, %rax
	movq	%rax, %rdi
	call	_ZNSt6vectorIP10FactorNodeSaIS1_EED1Ev
	movq	-24(%rbp), %rax
	addq	$8, %rax
	movq	%rax, %rdi
	call	_ZNSt6vectorIiSaIiEED1Ev
	nop
	leave
	.cfi_def_cfa 7, 8
	ret
	.cfi_endproc
.LFE3124:
	.section	.gcc_except_table
.LLSDA3124:
	.byte	0xff
	.byte	0xff
	.byte	0x1
	.uleb128 .LLSDACSE3124-.LLSDACSB3124
.LLSDACSB3124:
.LLSDACSE3124:
	.text
	.size	_ZN8TermNodeD2Ev, .-_ZN8TermNodeD2Ev
	.globl	_ZN8TermNodeD1Ev
	.set	_ZN8TermNodeD1Ev,_ZN8TermNodeD2Ev
	.section	.rodata
.LC16:
	.string	"simple_expression( "
.LC17:
	.string	"+ "
.LC18:
	.string	"- "
	.text
	.globl	_ZlsRSoR14SimpleExprNode
	.type	_ZlsRSoR14SimpleExprNode, @function
_ZlsRSoR14SimpleExprNode:
.LFB3126:
	.cfi_startproc
	endbr64
	pushq	%rbp
	.cfi_def_cfa_offset 16
	.cfi_offset 6, -16
	movq	%rsp, %rbp
	.cfi_def_cfa_register 6
	subq	$32, %rsp
	movq	%rdi, -24(%rbp)
	movq	%rsi, -32(%rbp)
	movq	-24(%rbp), %rax
	leaq	.LC16(%rip), %rsi
	movq	%rax, %rdi
	call	_ZStlsISt11char_traitsIcEERSt13basic_ostreamIcT_ES5_PKc@PLT
	movq	-32(%rbp), %rax
	movq	(%rax), %rdx
	movq	-24(%rbp), %rax
	movq	%rdx, %rsi
	movq	%rax, %rdi
	call	_ZlsRSoR8TermNode
	movq	-32(%rbp), %rax
	addq	$8, %rax
	movq	%rax, %rdi
	call	_ZNKSt6vectorIiSaIiEE4sizeEv
	movl	%eax, -8(%rbp)
	movl	$0, -12(%rbp)
.L87:
	movl	-12(%rbp), %eax
	cmpl	-8(%rbp), %eax
	jge	.L84
	movl	-12(%rbp), %eax
	cltq
	movq	-32(%rbp), %rdx
	addq	$8, %rdx
	movq	%rax, %rsi
	movq	%rdx, %rdi
	call	_ZNSt6vectorIiSaIiEEixEm
	movl	(%rax), %eax
	movl	%eax, -4(%rbp)
	cmpl	$3000, -4(%rbp)
	jne	.L85
	movq	-24(%rbp), %rax
	leaq	.LC17(%rip), %rsi
	movq	%rax, %rdi
	call	_ZStlsISt11char_traitsIcEERSt13basic_ostreamIcT_ES5_PKc@PLT
	jmp	.L86
.L85:
	movq	-24(%rbp), %rax
	leaq	.LC18(%rip), %rsi
	movq	%rax, %rdi
	call	_ZStlsISt11char_traitsIcEERSt13basic_ostreamIcT_ES5_PKc@PLT
.L86:
	movl	-12(%rbp), %eax
	cltq
	movq	-32(%rbp), %rdx
	addq	$32, %rdx
	movq	%rax, %rsi
	movq	%rdx, %rdi
	call	_ZNSt6vectorIP8TermNodeSaIS1_EEixEm
	movq	(%rax), %rdx
	movq	-24(%rbp), %rax
	movq	%rdx, %rsi
	movq	%rax, %rdi
	call	_ZlsRSoR8TermNode
	addl	$1, -12(%rbp)
	jmp	.L87
.L84:
	movq	-24(%rbp), %rax
	leaq	.LC14(%rip), %rsi
	movq	%rax, %rdi
	call	_ZStlsISt11char_traitsIcEERSt13basic_ostreamIcT_ES5_PKc@PLT
	movq	-24(%rbp), %rax
	leave
	.cfi_def_cfa 7, 8
	ret
	.cfi_endproc
.LFE3126:
	.size	_ZlsRSoR14SimpleExprNode, .-_ZlsRSoR14SimpleExprNode
	.section	.rodata
	.align 8
.LC19:
	.string	"Deleting a simpleExpressionNode"
	.text
	.align 2
	.globl	_ZN14SimpleExprNodeD2Ev
	.type	_ZN14SimpleExprNodeD2Ev, @function
_ZN14SimpleExprNodeD2Ev:
.LFB3128:
	.cfi_startproc
	.cfi_personality 0x9b,DW.ref.__gxx_personality_v0
	.cfi_lsda 0x1b,.LLSDA3128
	endbr64
	pushq	%rbp
	.cfi_def_cfa_offset 16
	.cfi_offset 6, -16
	movq	%rsp, %rbp
	.cfi_def_cfa_register 6
	pushq	%rbx
	subq	$40, %rsp
	.cfi_offset 3, -24
	movq	%rdi, -40(%rbp)
	leaq	.LC19(%rip), %rsi
	leaq	_ZSt4cout(%rip), %rdi
	call	_ZStlsISt11char_traitsIcEERSt13basic_ostreamIcT_ES5_PKc@PLT
	movq	%rax, %rdx
	movq	_ZSt4endlIcSt11char_traitsIcEERSt13basic_ostreamIT_T0_ES6_@GOTPCREL(%rip), %rax
	movq	%rax, %rsi
	movq	%rdx, %rdi
	call	_ZNSolsEPFRSoS_E@PLT
	movq	-40(%rbp), %rax
	movq	(%rax), %rbx
	testq	%rbx, %rbx
	je	.L90
	movq	%rbx, %rdi
	call	_ZN8TermNodeD1Ev
	movl	$56, %esi
	movq	%rbx, %rdi
	call	_ZdlPvm@PLT
.L90:
	movq	-40(%rbp), %rax
	movq	$0, (%rax)
	movq	-40(%rbp), %rax
	addq	$8, %rax
	movq	%rax, %rdi
	call	_ZNKSt6vectorIiSaIiEE4sizeEv
	movl	%eax, -20(%rbp)
	movl	$0, -24(%rbp)
.L93:
	movl	-24(%rbp), %eax
	cmpl	-20(%rbp), %eax
	jge	.L91
	movl	-24(%rbp), %eax
	cltq
	movq	-40(%rbp), %rdx
	addq	$32, %rdx
	movq	%rax, %rsi
	movq	%rdx, %rdi
	call	_ZNSt6vectorIP8TermNodeSaIS1_EEixEm
	movq	(%rax), %rbx
	testq	%rbx, %rbx
	je	.L92
	movq	%rbx, %rdi
	call	_ZN8TermNodeD1Ev
	movl	$56, %esi
	movq	%rbx, %rdi
	call	_ZdlPvm@PLT
.L92:
	movl	-24(%rbp), %eax
	cltq
	movq	-40(%rbp), %rdx
	addq	$32, %rdx
	movq	%rax, %rsi
	movq	%rdx, %rdi
	call	_ZNSt6vectorIP8TermNodeSaIS1_EEixEm
	movq	$0, (%rax)
	addl	$1, -24(%rbp)
	jmp	.L93
.L91:
	movq	-40(%rbp), %rax
	addq	$32, %rax
	movq	%rax, %rdi
	call	_ZNSt6vectorIP8TermNodeSaIS1_EED1Ev
	movq	-40(%rbp), %rax
	addq	$8, %rax
	movq	%rax, %rdi
	call	_ZNSt6vectorIiSaIiEED1Ev
	nop
	addq	$40, %rsp
	popq	%rbx
	popq	%rbp
	.cfi_def_cfa 7, 8
	ret
	.cfi_endproc
.LFE3128:
	.section	.gcc_except_table
.LLSDA3128:
	.byte	0xff
	.byte	0xff
	.byte	0x1
	.uleb128 .LLSDACSE3128-.LLSDACSB3128
.LLSDACSB3128:
.LLSDACSE3128:
	.text
	.size	_ZN14SimpleExprNodeD2Ev, .-_ZN14SimpleExprNodeD2Ev
	.globl	_ZN14SimpleExprNodeD1Ev
	.set	_ZN14SimpleExprNodeD1Ev,_ZN14SimpleExprNodeD2Ev
	.section	.rodata
.LC20:
	.string	"expression( "
.LC21:
	.string	" "
.LC22:
	.string	")"
	.text
	.globl	_ZlsRSoR8ExprNode
	.type	_ZlsRSoR8ExprNode, @function
_ZlsRSoR8ExprNode:
.LFB3130:
	.cfi_startproc
	endbr64
	pushq	%rbp
	.cfi_def_cfa_offset 16
	.cfi_offset 6, -16
	movq	%rsp, %rbp
	.cfi_def_cfa_register 6
	subq	$48, %rsp
	movq	%rdi, -40(%rbp)
	movq	%rsi, -48(%rbp)
	movq	%fs:40, %rax
	movq	%rax, -8(%rbp)
	xorl	%eax, %eax
	movq	-40(%rbp), %rax
	leaq	.LC20(%rip), %rsi
	movq	%rax, %rdi
	call	_ZStlsISt11char_traitsIcEERSt13basic_ostreamIcT_ES5_PKc@PLT
	movq	-48(%rbp), %rax
	movq	(%rax), %rdx
	movq	-40(%rbp), %rax
	movq	%rdx, %rsi
	movq	%rax, %rdi
	call	_ZlsRSoR14SimpleExprNode
	movq	-48(%rbp), %rax
	addq	$8, %rax
	movq	%rax, %rdi
	call	_ZNKSt6vectorIiSaIiEE4sizeEv
	movl	%eax, -12(%rbp)
	movl	$0, -16(%rbp)
.L96:
	movl	-16(%rbp), %eax
	cmpl	-12(%rbp), %eax
	jge	.L95
	movl	-16(%rbp), %eax
	cltq
	movq	-48(%rbp), %rdx
	addq	$8, %rdx
	movq	%rax, %rsi
	movq	%rdx, %rdi
	call	_ZNSt6vectorIiSaIiEEixEm
	movl	(%rax), %eax
	movl	%eax, -20(%rbp)
	leaq	-20(%rbp), %rax
	movq	%rax, %rsi
	leaq	_Z4gopsB5cxx11(%rip), %rdi
	call	_ZNSt13unordered_mapIiNSt7__cxx1112basic_stringIcSt11char_traitsIcESaIcEEESt4hashIiESt8equal_toIiESaISt4pairIKiS5_EEEixERSB_
	movq	%rax, %rdx
	movq	-40(%rbp), %rax
	movq	%rdx, %rsi
	movq	%rax, %rdi
	call	_ZStlsIcSt11char_traitsIcESaIcEERSt13basic_ostreamIT_T0_ES7_RKNSt7__cxx1112basic_stringIS4_S5_T1_EE@PLT
	leaq	.LC21(%rip), %rsi
	movq	%rax, %rdi
	call	_ZStlsISt11char_traitsIcEERSt13basic_ostreamIcT_ES5_PKc@PLT
	movl	-16(%rbp), %eax
	cltq
	movq	-48(%rbp), %rdx
	addq	$32, %rdx
	movq	%rax, %rsi
	movq	%rdx, %rdi
	call	_ZNSt6vectorIP14SimpleExprNodeSaIS1_EEixEm
	movq	(%rax), %rdx
	movq	-40(%rbp), %rax
	movq	%rdx, %rsi
	movq	%rax, %rdi
	call	_ZlsRSoR14SimpleExprNode
	addl	$1, -16(%rbp)
	jmp	.L96
.L95:
	movq	-40(%rbp), %rax
	leaq	.LC22(%rip), %rsi
	movq	%rax, %rdi
	call	_ZStlsISt11char_traitsIcEERSt13basic_ostreamIcT_ES5_PKc@PLT
	movq	-40(%rbp), %rax
	movq	-8(%rbp), %rcx
	xorq	%fs:40, %rcx
	je	.L98
	call	__stack_chk_fail@PLT
.L98:
	leave
	.cfi_def_cfa 7, 8
	ret
	.cfi_endproc
.LFE3130:
	.size	_ZlsRSoR8ExprNode, .-_ZlsRSoR8ExprNode
	.section	.rodata
.LC23:
	.string	"Deleting an expressionNode"
	.text
	.align 2
	.globl	_ZN8ExprNodeD2Ev
	.type	_ZN8ExprNodeD2Ev, @function
_ZN8ExprNodeD2Ev:
.LFB3132:
	.cfi_startproc
	.cfi_personality 0x9b,DW.ref.__gxx_personality_v0
	.cfi_lsda 0x1b,.LLSDA3132
	endbr64
	pushq	%rbp
	.cfi_def_cfa_offset 16
	.cfi_offset 6, -16
	movq	%rsp, %rbp
	.cfi_def_cfa_register 6
	pushq	%rbx
	subq	$40, %rsp
	.cfi_offset 3, -24
	movq	%rdi, -40(%rbp)
	leaq	.LC23(%rip), %rsi
	leaq	_ZSt4cout(%rip), %rdi
	call	_ZStlsISt11char_traitsIcEERSt13basic_ostreamIcT_ES5_PKc@PLT
	movq	%rax, %rdx
	movq	_ZSt4endlIcSt11char_traitsIcEERSt13basic_ostreamIT_T0_ES6_@GOTPCREL(%rip), %rax
	movq	%rax, %rsi
	movq	%rdx, %rdi
	call	_ZNSolsEPFRSoS_E@PLT
	movq	-40(%rbp), %rax
	movq	(%rax), %rbx
	testq	%rbx, %rbx
	je	.L100
	movq	%rbx, %rdi
	call	_ZN14SimpleExprNodeD1Ev
	movl	$56, %esi
	movq	%rbx, %rdi
	call	_ZdlPvm@PLT
.L100:
	movq	-40(%rbp), %rax
	movq	$0, (%rax)
	movq	-40(%rbp), %rax
	addq	$8, %rax
	movq	%rax, %rdi
	call	_ZNKSt6vectorIiSaIiEE4sizeEv
	movl	%eax, -20(%rbp)
	movl	$0, -24(%rbp)
.L103:
	movl	-24(%rbp), %eax
	cmpl	-20(%rbp), %eax
	jge	.L101
	movl	-24(%rbp), %eax
	cltq
	movq	-40(%rbp), %rdx
	addq	$32, %rdx
	movq	%rax, %rsi
	movq	%rdx, %rdi
	call	_ZNSt6vectorIP14SimpleExprNodeSaIS1_EEixEm
	movq	(%rax), %rbx
	testq	%rbx, %rbx
	je	.L102
	movq	%rbx, %rdi
	call	_ZN14SimpleExprNodeD1Ev
	movl	$56, %esi
	movq	%rbx, %rdi
	call	_ZdlPvm@PLT
.L102:
	movl	-24(%rbp), %eax
	cltq
	movq	-40(%rbp), %rdx
	addq	$32, %rdx
	movq	%rax, %rsi
	movq	%rdx, %rdi
	call	_ZNSt6vectorIP14SimpleExprNodeSaIS1_EEixEm
	movq	$0, (%rax)
	addl	$1, -24(%rbp)
	jmp	.L103
.L101:
	movq	-40(%rbp), %rax
	addq	$32, %rax
	movq	%rax, %rdi
	call	_ZNSt6vectorIP14SimpleExprNodeSaIS1_EED1Ev
	movq	-40(%rbp), %rax
	addq	$8, %rax
	movq	%rax, %rdi
	call	_ZNSt6vectorIiSaIiEED1Ev
	nop
	addq	$40, %rsp
	popq	%rbx
	popq	%rbp
	.cfi_def_cfa 7, 8
	ret
	.cfi_endproc
.LFE3132:
	.section	.gcc_except_table
.LLSDA3132:
	.byte	0xff
	.byte	0xff
	.byte	0x1
	.uleb128 .LLSDACSE3132-.LLSDACSB3132
.LLSDACSB3132:
.LLSDACSE3132:
	.text
	.size	_ZN8ExprNodeD2Ev, .-_ZN8ExprNodeD2Ev
	.globl	_ZN8ExprNodeD1Ev
	.set	_ZN8ExprNodeD1Ev,_ZN8ExprNodeD2Ev
	.align 2
	.globl	_ZN14NestedExprNodeD2Ev
	.type	_ZN14NestedExprNodeD2Ev, @function
_ZN14NestedExprNodeD2Ev:
.LFB3135:
	.cfi_startproc
	.cfi_personality 0x9b,DW.ref.__gxx_personality_v0
	.cfi_lsda 0x1b,.LLSDA3135
	endbr64
	pushq	%rbp
	.cfi_def_cfa_offset 16
	.cfi_offset 6, -16
	movq	%rsp, %rbp
	.cfi_def_cfa_register 6
	pushq	%rbx
	subq	$24, %rsp
	.cfi_offset 3, -24
	movq	%rdi, -24(%rbp)
	leaq	16+_ZTV14NestedExprNode(%rip), %rdx
	movq	-24(%rbp), %rax
	movq	%rdx, (%rax)
	leaq	.LC6(%rip), %rsi
	leaq	_ZSt4cout(%rip), %rdi
	call	_ZStlsISt11char_traitsIcEERSt13basic_ostreamIcT_ES5_PKc@PLT
	movq	%rax, %rdx
	movq	_ZSt4endlIcSt11char_traitsIcEERSt13basic_ostreamIT_T0_ES6_@GOTPCREL(%rip), %rax
	movq	%rax, %rsi
	movq	%rdx, %rdi
	call	_ZNSolsEPFRSoS_E@PLT
	movq	-24(%rbp), %rax
	movq	8(%rax), %rbx
	testq	%rbx, %rbx
	je	.L105
	movq	%rbx, %rdi
	call	_ZN8ExprNodeD1Ev
	movl	$56, %esi
	movq	%rbx, %rdi
	call	_ZdlPvm@PLT
.L105:
	movq	-24(%rbp), %rax
	movq	$0, 8(%rax)
	movq	-24(%rbp), %rax
	movq	%rax, %rdi
	call	_ZN10FactorNodeD2Ev
	nop
	addq	$24, %rsp
	popq	%rbx
	popq	%rbp
	.cfi_def_cfa 7, 8
	ret
	.cfi_endproc
.LFE3135:
	.section	.gcc_except_table
.LLSDA3135:
	.byte	0xff
	.byte	0xff
	.byte	0x1
	.uleb128 .LLSDACSE3135-.LLSDACSB3135
.LLSDACSB3135:
.LLSDACSE3135:
	.text
	.size	_ZN14NestedExprNodeD2Ev, .-_ZN14NestedExprNodeD2Ev
	.globl	_ZN14NestedExprNodeD1Ev
	.set	_ZN14NestedExprNodeD1Ev,_ZN14NestedExprNodeD2Ev
	.align 2
	.globl	_ZN14NestedExprNodeD0Ev
	.type	_ZN14NestedExprNodeD0Ev, @function
_ZN14NestedExprNodeD0Ev:
.LFB3137:
	.cfi_startproc
	endbr64
	pushq	%rbp
	.cfi_def_cfa_offset 16
	.cfi_offset 6, -16
	movq	%rsp, %rbp
	.cfi_def_cfa_register 6
	subq	$16, %rsp
	movq	%rdi, -8(%rbp)
	movq	-8(%rbp), %rax
	movq	%rax, %rdi
	call	_ZN14NestedExprNodeD1Ev
	movq	-8(%rbp), %rax
	movl	$16, %esi
	movq	%rax, %rdi
	call	_ZdlPvm@PLT
	leave
	.cfi_def_cfa 7, 8
	ret
	.cfi_endproc
.LFE3137:
	.size	_ZN14NestedExprNodeD0Ev, .-_ZN14NestedExprNodeD0Ev
	.align 2
	.globl	_ZN13StatementNodeD2Ev
	.type	_ZN13StatementNodeD2Ev, @function
_ZN13StatementNodeD2Ev:
.LFB3139:
	.cfi_startproc
	endbr64
	pushq	%rbp
	.cfi_def_cfa_offset 16
	.cfi_offset 6, -16
	movq	%rsp, %rbp
	.cfi_def_cfa_register 6
	movq	%rdi, -8(%rbp)
	leaq	16+_ZTV13StatementNode(%rip), %rdx
	movq	-8(%rbp), %rax
	movq	%rdx, (%rax)
	nop
	popq	%rbp
	.cfi_def_cfa 7, 8
	ret
	.cfi_endproc
.LFE3139:
	.size	_ZN13StatementNodeD2Ev, .-_ZN13StatementNodeD2Ev
	.globl	_ZN13StatementNodeD1Ev
	.set	_ZN13StatementNodeD1Ev,_ZN13StatementNodeD2Ev
	.align 2
	.globl	_ZN13StatementNodeD0Ev
	.type	_ZN13StatementNodeD0Ev, @function
_ZN13StatementNodeD0Ev:
.LFB3141:
	.cfi_startproc
	endbr64
	pushq	%rbp
	.cfi_def_cfa_offset 16
	.cfi_offset 6, -16
	movq	%rsp, %rbp
	.cfi_def_cfa_register 6
	subq	$16, %rsp
	movq	%rdi, -8(%rbp)
	movq	-8(%rbp), %rax
	movq	%rax, %rdi
	call	_ZN13StatementNodeD1Ev
	movq	-8(%rbp), %rax
	movl	$8, %esi
	movq	%rax, %rdi
	call	_ZdlPvm@PLT
	leave
	.cfi_def_cfa 7, 8
	ret
	.cfi_endproc
.LFE3141:
	.size	_ZN13StatementNodeD0Ev, .-_ZN13StatementNodeD0Ev
	.globl	_ZlsRSoR13StatementNode
	.type	_ZlsRSoR13StatementNode, @function
_ZlsRSoR13StatementNode:
.LFB3142:
	.cfi_startproc
	endbr64
	pushq	%rbp
	.cfi_def_cfa_offset 16
	.cfi_offset 6, -16
	movq	%rsp, %rbp
	.cfi_def_cfa_register 6
	subq	$16, %rsp
	movq	%rdi, -8(%rbp)
	movq	%rsi, -16(%rbp)
	movq	-16(%rbp), %rax
	movq	(%rax), %rax
	movq	(%rax), %rcx
	movq	-8(%rbp), %rdx
	movq	-16(%rbp), %rax
	movq	%rdx, %rsi
	movq	%rax, %rdi
	call	*%rcx
	movq	-8(%rbp), %rax
	leave
	.cfi_def_cfa 7, 8
	ret
	.cfi_endproc
.LFE3142:
	.size	_ZlsRSoR13StatementNode, .-_ZlsRSoR13StatementNode
	.section	.rodata
.LC24:
	.string	"Deleting an assignmentNode"
	.text
	.align 2
	.globl	_ZN14AssignmentNodeD2Ev
	.type	_ZN14AssignmentNodeD2Ev, @function
_ZN14AssignmentNodeD2Ev:
.LFB3144:
	.cfi_startproc
	.cfi_personality 0x9b,DW.ref.__gxx_personality_v0
	.cfi_lsda 0x1b,.LLSDA3144
	endbr64
	pushq	%rbp
	.cfi_def_cfa_offset 16
	.cfi_offset 6, -16
	movq	%rsp, %rbp
	.cfi_def_cfa_register 6
	pushq	%rbx
	subq	$24, %rsp
	.cfi_offset 3, -24
	movq	%rdi, -24(%rbp)
	leaq	16+_ZTV14AssignmentNode(%rip), %rdx
	movq	-24(%rbp), %rax
	movq	%rdx, (%rax)
	leaq	.LC24(%rip), %rsi
	leaq	_ZSt4cout(%rip), %rdi
	call	_ZStlsISt11char_traitsIcEERSt13basic_ostreamIcT_ES5_PKc@PLT
	movq	%rax, %rdx
	movq	_ZSt4endlIcSt11char_traitsIcEERSt13basic_ostreamIT_T0_ES6_@GOTPCREL(%rip), %rax
	movq	%rax, %rsi
	movq	%rdx, %rdi
	call	_ZNSolsEPFRSoS_E@PLT
	movq	-24(%rbp), %rax
	movq	8(%rax), %rbx
	testq	%rbx, %rbx
	je	.L112
	movq	%rbx, %rdi
	call	_ZN8ExprNodeD1Ev
	movl	$56, %esi
	movq	%rbx, %rdi
	call	_ZdlPvm@PLT
.L112:
	movq	-24(%rbp), %rax
	movq	$0, 8(%rax)
	movq	-24(%rbp), %rax
	addq	$24, %rax
	movq	%rax, %rdi
	call	_ZNSt6vectorIiSaIiEED1Ev
	movq	-24(%rbp), %rax
	movq	%rax, %rdi
	call	_ZN13StatementNodeD2Ev
	nop
	addq	$24, %rsp
	popq	%rbx
	popq	%rbp
	.cfi_def_cfa 7, 8
	ret
	.cfi_endproc
.LFE3144:
	.section	.gcc_except_table
.LLSDA3144:
	.byte	0xff
	.byte	0xff
	.byte	0x1
	.uleb128 .LLSDACSE3144-.LLSDACSB3144
.LLSDACSB3144:
.LLSDACSE3144:
	.text
	.size	_ZN14AssignmentNodeD2Ev, .-_ZN14AssignmentNodeD2Ev
	.globl	_ZN14AssignmentNodeD1Ev
	.set	_ZN14AssignmentNodeD1Ev,_ZN14AssignmentNodeD2Ev
	.align 2
	.globl	_ZN14AssignmentNodeD0Ev
	.type	_ZN14AssignmentNodeD0Ev, @function
_ZN14AssignmentNodeD0Ev:
.LFB3146:
	.cfi_startproc
	endbr64
	pushq	%rbp
	.cfi_def_cfa_offset 16
	.cfi_offset 6, -16
	movq	%rsp, %rbp
	.cfi_def_cfa_register 6
	subq	$16, %rsp
	movq	%rdi, -8(%rbp)
	movq	-8(%rbp), %rax
	movq	%rax, %rdi
	call	_ZN14AssignmentNodeD1Ev
	movq	-8(%rbp), %rax
	movl	$48, %esi
	movq	%rax, %rdi
	call	_ZdlPvm@PLT
	leave
	.cfi_def_cfa 7, 8
	ret
	.cfi_endproc
.LFE3146:
	.size	_ZN14AssignmentNodeD0Ev, .-_ZN14AssignmentNodeD0Ev
	.section	.rodata
.LC25:
	.string	"Assignment "
.LC26:
	.string	" := "
	.text
	.align 2
	.globl	_ZN14AssignmentNode7printToERSo
	.type	_ZN14AssignmentNode7printToERSo, @function
_ZN14AssignmentNode7printToERSo:
.LFB3147:
	.cfi_startproc
	endbr64
	pushq	%rbp
	.cfi_def_cfa_offset 16
	.cfi_offset 6, -16
	movq	%rsp, %rbp
	.cfi_def_cfa_register 6
	subq	$16, %rsp
	movq	%rdi, -8(%rbp)
	movq	%rsi, -16(%rbp)
	movq	-16(%rbp), %rax
	leaq	.LC25(%rip), %rsi
	movq	%rax, %rdi
	call	_ZStlsISt11char_traitsIcEERSt13basic_ostreamIcT_ES5_PKc@PLT
	movq	%rax, %rdx
	movq	-8(%rbp), %rax
	movq	16(%rax), %rax
	movq	%rax, %rsi
	movq	%rdx, %rdi
	call	_ZStlsIcSt11char_traitsIcESaIcEERSt13basic_ostreamIT_T0_ES7_RKNSt7__cxx1112basic_stringIS4_S5_T1_EE@PLT
	leaq	.LC26(%rip), %rsi
	movq	%rax, %rdi
	call	_ZStlsISt11char_traitsIcEERSt13basic_ostreamIcT_ES5_PKc@PLT
	movq	-8(%rbp), %rax
	movq	8(%rax), %rdx
	movq	-16(%rbp), %rax
	movq	%rdx, %rsi
	movq	%rax, %rdi
	call	_ZlsRSoR8ExprNode
	movq	%rax, %rdx
	movq	_ZSt4endlIcSt11char_traitsIcEERSt13basic_ostreamIT_T0_ES6_@GOTPCREL(%rip), %rax
	movq	%rax, %rsi
	movq	%rdx, %rdi
	call	_ZNSolsEPFRSoS_E@PLT
	nop
	leave
	.cfi_def_cfa 7, 8
	ret
	.cfi_endproc
.LFE3147:
	.size	_ZN14AssignmentNode7printToERSo, .-_ZN14AssignmentNode7printToERSo
	.section	.rodata
.LC27:
	.string	"Deleting a compoundNode"
	.text
	.align 2
	.globl	_ZN12CompoundNodeD2Ev
	.type	_ZN12CompoundNodeD2Ev, @function
_ZN12CompoundNodeD2Ev:
.LFB3149:
	.cfi_startproc
	.cfi_personality 0x9b,DW.ref.__gxx_personality_v0
	.cfi_lsda 0x1b,.LLSDA3149
	endbr64
	pushq	%rbp
	.cfi_def_cfa_offset 16
	.cfi_offset 6, -16
	movq	%rsp, %rbp
	.cfi_def_cfa_register 6
	subq	$32, %rsp
	movq	%rdi, -24(%rbp)
	leaq	16+_ZTV12CompoundNode(%rip), %rdx
	movq	-24(%rbp), %rax
	movq	%rdx, (%rax)
	leaq	.LC27(%rip), %rsi
	leaq	_ZSt4cout(%rip), %rdi
	call	_ZStlsISt11char_traitsIcEERSt13basic_ostreamIcT_ES5_PKc@PLT
	movq	%rax, %rdx
	movq	_ZSt4endlIcSt11char_traitsIcEERSt13basic_ostreamIT_T0_ES6_@GOTPCREL(%rip), %rax
	movq	%rax, %rsi
	movq	%rdx, %rdi
	call	_ZNSolsEPFRSoS_E@PLT
	movq	-24(%rbp), %rax
	movq	8(%rax), %rax
	testq	%rax, %rax
	je	.L116
	movq	(%rax), %rdx
	addq	$16, %rdx
	movq	(%rdx), %rdx
	movq	%rax, %rdi
	call	*%rdx
.L116:
	movq	-24(%rbp), %rax
	movq	$0, 8(%rax)
	movq	-24(%rbp), %rax
	addq	$16, %rax
	movq	%rax, %rdi
	call	_ZNKSt6vectorIP13StatementNodeSaIS1_EE4sizeEv
	movl	%eax, -4(%rbp)
	movl	$0, -8(%rbp)
.L119:
	movl	-8(%rbp), %eax
	cmpl	-4(%rbp), %eax
	jge	.L117
	movl	-8(%rbp), %eax
	cltq
	movq	-24(%rbp), %rdx
	addq	$16, %rdx
	movq	%rax, %rsi
	movq	%rdx, %rdi
	call	_ZNSt6vectorIP13StatementNodeSaIS1_EEixEm
	movq	(%rax), %rax
	testq	%rax, %rax
	je	.L118
	movq	(%rax), %rdx
	addq	$16, %rdx
	movq	(%rdx), %rdx
	movq	%rax, %rdi
	call	*%rdx
.L118:
	movl	-8(%rbp), %eax
	cltq
	movq	-24(%rbp), %rdx
	addq	$16, %rdx
	movq	%rax, %rsi
	movq	%rdx, %rdi
	call	_ZNSt6vectorIP13StatementNodeSaIS1_EEixEm
	movq	$0, (%rax)
	addl	$1, -8(%rbp)
	jmp	.L119
.L117:
	movq	-24(%rbp), %rax
	addq	$16, %rax
	movq	%rax, %rdi
	call	_ZNSt6vectorIP13StatementNodeSaIS1_EED1Ev
	movq	-24(%rbp), %rax
	movq	%rax, %rdi
	call	_ZN13StatementNodeD2Ev
	nop
	leave
	.cfi_def_cfa 7, 8
	ret
	.cfi_endproc
.LFE3149:
	.section	.gcc_except_table
.LLSDA3149:
	.byte	0xff
	.byte	0xff
	.byte	0x1
	.uleb128 .LLSDACSE3149-.LLSDACSB3149
.LLSDACSB3149:
.LLSDACSE3149:
	.text
	.size	_ZN12CompoundNodeD2Ev, .-_ZN12CompoundNodeD2Ev
	.globl	_ZN12CompoundNodeD1Ev
	.set	_ZN12CompoundNodeD1Ev,_ZN12CompoundNodeD2Ev
	.align 2
	.globl	_ZN12CompoundNodeD0Ev
	.type	_ZN12CompoundNodeD0Ev, @function
_ZN12CompoundNodeD0Ev:
.LFB3151:
	.cfi_startproc
	endbr64
	pushq	%rbp
	.cfi_def_cfa_offset 16
	.cfi_offset 6, -16
	movq	%rsp, %rbp
	.cfi_def_cfa_register 6
	subq	$16, %rsp
	movq	%rdi, -8(%rbp)
	movq	-8(%rbp), %rax
	movq	%rax, %rdi
	call	_ZN12CompoundNodeD1Ev
	movq	-8(%rbp), %rax
	movl	$40, %esi
	movq	%rax, %rdi
	call	_ZdlPvm@PLT
	leave
	.cfi_def_cfa 7, 8
	ret
	.cfi_endproc
.LFE3151:
	.size	_ZN12CompoundNodeD0Ev, .-_ZN12CompoundNodeD0Ev
	.section	.rodata
.LC28:
	.string	"Begin Compound Statement"
.LC29:
	.string	"LENGTH: "
.LC30:
	.string	"End Compound Statement"
	.text
	.align 2
	.globl	_ZN12CompoundNode7printToERSo
	.type	_ZN12CompoundNode7printToERSo, @function
_ZN12CompoundNode7printToERSo:
.LFB3152:
	.cfi_startproc
	endbr64
	pushq	%rbp
	.cfi_def_cfa_offset 16
	.cfi_offset 6, -16
	movq	%rsp, %rbp
	.cfi_def_cfa_register 6
	subq	$32, %rsp
	movq	%rdi, -24(%rbp)
	movq	%rsi, -32(%rbp)
	movq	-32(%rbp), %rax
	leaq	.LC28(%rip), %rsi
	movq	%rax, %rdi
	call	_ZStlsISt11char_traitsIcEERSt13basic_ostreamIcT_ES5_PKc@PLT
	movq	%rax, %rdx
	movq	_ZSt4endlIcSt11char_traitsIcEERSt13basic_ostreamIT_T0_ES6_@GOTPCREL(%rip), %rax
	movq	%rax, %rsi
	movq	%rdx, %rdi
	call	_ZNSolsEPFRSoS_E@PLT
	movq	-24(%rbp), %rax
	movq	8(%rax), %rdx
	movq	-32(%rbp), %rax
	movq	%rdx, %rsi
	movq	%rax, %rdi
	call	_ZlsRSoR13StatementNode
	movq	-24(%rbp), %rax
	addq	$16, %rax
	movq	%rax, %rdi
	call	_ZNKSt6vectorIP13StatementNodeSaIS1_EE4sizeEv
	movl	%eax, -4(%rbp)
	leaq	.LC29(%rip), %rsi
	leaq	_ZSt4cout(%rip), %rdi
	call	_ZStlsISt11char_traitsIcEERSt13basic_ostreamIcT_ES5_PKc@PLT
	movq	%rax, %rdx
	movl	-4(%rbp), %eax
	movl	%eax, %esi
	movq	%rdx, %rdi
	call	_ZNSolsEi@PLT
	movq	%rax, %rdx
	movq	_ZSt4endlIcSt11char_traitsIcEERSt13basic_ostreamIT_T0_ES6_@GOTPCREL(%rip), %rax
	movq	%rax, %rsi
	movq	%rdx, %rdi
	call	_ZNSolsEPFRSoS_E@PLT
	movl	$0, -8(%rbp)
.L123:
	movl	-8(%rbp), %eax
	cmpl	-4(%rbp), %eax
	jge	.L122
	movl	-8(%rbp), %eax
	cltq
	movq	-24(%rbp), %rdx
	addq	$16, %rdx
	movq	%rax, %rsi
	movq	%rdx, %rdi
	call	_ZNSt6vectorIP13StatementNodeSaIS1_EEixEm
	movq	(%rax), %rdx
	movq	-32(%rbp), %rax
	movq	%rdx, %rsi
	movq	%rax, %rdi
	call	_ZNSolsEPKv@PLT
	movq	%rax, %rdx
	movq	_ZSt4endlIcSt11char_traitsIcEERSt13basic_ostreamIT_T0_ES6_@GOTPCREL(%rip), %rax
	movq	%rax, %rsi
	movq	%rdx, %rdi
	call	_ZNSolsEPFRSoS_E@PLT
	movq	-24(%rbp), %rax
	leaq	16(%rax), %rdx
	movl	-8(%rbp), %eax
	cltq
	movq	%rax, %rsi
	movq	%rdx, %rdi
	call	_ZNSt6vectorIP13StatementNodeSaIS1_EE2atEm
	movq	(%rax), %rdx
	movq	-32(%rbp), %rax
	movq	%rdx, %rsi
	movq	%rax, %rdi
	call	_ZlsRSoR13StatementNode
	addl	$1, -8(%rbp)
	jmp	.L123
.L122:
	movq	-32(%rbp), %rax
	leaq	.LC30(%rip), %rsi
	movq	%rax, %rdi
	call	_ZStlsISt11char_traitsIcEERSt13basic_ostreamIcT_ES5_PKc@PLT
	nop
	leave
	.cfi_def_cfa 7, 8
	ret
	.cfi_endproc
.LFE3152:
	.size	_ZN12CompoundNode7printToERSo, .-_ZN12CompoundNode7printToERSo
	.section	.rodata
.LC31:
	.string	"Deleting an ifNode"
	.text
	.align 2
	.globl	_ZN6IfNodeD2Ev
	.type	_ZN6IfNodeD2Ev, @function
_ZN6IfNodeD2Ev:
.LFB3154:
	.cfi_startproc
	.cfi_personality 0x9b,DW.ref.__gxx_personality_v0
	.cfi_lsda 0x1b,.LLSDA3154
	endbr64
	pushq	%rbp
	.cfi_def_cfa_offset 16
	.cfi_offset 6, -16
	movq	%rsp, %rbp
	.cfi_def_cfa_register 6
	pushq	%rbx
	subq	$40, %rsp
	.cfi_offset 3, -24
	movq	%rdi, -40(%rbp)
	leaq	16+_ZTV6IfNode(%rip), %rdx
	movq	-40(%rbp), %rax
	movq	%rdx, (%rax)
	leaq	.LC31(%rip), %rsi
	leaq	_ZSt4cout(%rip), %rdi
	call	_ZStlsISt11char_traitsIcEERSt13basic_ostreamIcT_ES5_PKc@PLT
	movq	%rax, %rdx
	movq	_ZSt4endlIcSt11char_traitsIcEERSt13basic_ostreamIT_T0_ES6_@GOTPCREL(%rip), %rax
	movq	%rax, %rsi
	movq	%rdx, %rdi
	call	_ZNSolsEPFRSoS_E@PLT
	movq	-40(%rbp), %rax
	movq	8(%rax), %rbx
	testq	%rbx, %rbx
	je	.L125
	movq	%rbx, %rdi
	call	_ZN8ExprNodeD1Ev
	movl	$56, %esi
	movq	%rbx, %rdi
	call	_ZdlPvm@PLT
.L125:
	movq	-40(%rbp), %rax
	movq	$0, 8(%rax)
	movq	-40(%rbp), %rax
	movq	16(%rax), %rax
	testq	%rax, %rax
	je	.L126
	movq	(%rax), %rdx
	addq	$16, %rdx
	movq	(%rdx), %rdx
	movq	%rax, %rdi
	call	*%rdx
.L126:
	movq	-40(%rbp), %rax
	movq	$0, 16(%rax)
	movq	-40(%rbp), %rax
	addq	$24, %rax
	movq	%rax, %rdi
	call	_ZNKSt6vectorIP13StatementNodeSaIS1_EE4sizeEv
	movl	%eax, -20(%rbp)
	movl	$0, -24(%rbp)
.L129:
	movl	-24(%rbp), %eax
	cmpl	-20(%rbp), %eax
	jge	.L127
	movl	-24(%rbp), %eax
	cltq
	movq	-40(%rbp), %rdx
	addq	$24, %rdx
	movq	%rax, %rsi
	movq	%rdx, %rdi
	call	_ZNSt6vectorIP13StatementNodeSaIS1_EEixEm
	movq	(%rax), %rax
	testq	%rax, %rax
	je	.L128
	movq	(%rax), %rdx
	addq	$16, %rdx
	movq	(%rdx), %rdx
	movq	%rax, %rdi
	call	*%rdx
.L128:
	movl	-24(%rbp), %eax
	cltq
	movq	-40(%rbp), %rdx
	addq	$24, %rdx
	movq	%rax, %rsi
	movq	%rdx, %rdi
	call	_ZNSt6vectorIP13StatementNodeSaIS1_EEixEm
	movq	$0, (%rax)
	addl	$1, -24(%rbp)
	jmp	.L129
.L127:
	movq	-40(%rbp), %rax
	addq	$24, %rax
	movq	%rax, %rdi
	call	_ZNSt6vectorIP13StatementNodeSaIS1_EED1Ev
	movq	-40(%rbp), %rax
	movq	%rax, %rdi
	call	_ZN13StatementNodeD2Ev
	nop
	addq	$40, %rsp
	popq	%rbx
	popq	%rbp
	.cfi_def_cfa 7, 8
	ret
	.cfi_endproc
.LFE3154:
	.section	.gcc_except_table
.LLSDA3154:
	.byte	0xff
	.byte	0xff
	.byte	0x1
	.uleb128 .LLSDACSE3154-.LLSDACSB3154
.LLSDACSB3154:
.LLSDACSE3154:
	.text
	.size	_ZN6IfNodeD2Ev, .-_ZN6IfNodeD2Ev
	.globl	_ZN6IfNodeD1Ev
	.set	_ZN6IfNodeD1Ev,_ZN6IfNodeD2Ev
	.align 2
	.globl	_ZN6IfNodeD0Ev
	.type	_ZN6IfNodeD0Ev, @function
_ZN6IfNodeD0Ev:
.LFB3156:
	.cfi_startproc
	endbr64
	pushq	%rbp
	.cfi_def_cfa_offset 16
	.cfi_offset 6, -16
	movq	%rsp, %rbp
	.cfi_def_cfa_register 6
	subq	$16, %rsp
	movq	%rdi, -8(%rbp)
	movq	-8(%rbp), %rax
	movq	%rax, %rdi
	call	_ZN6IfNodeD1Ev
	movq	-8(%rbp), %rax
	movl	$48, %esi
	movq	%rax, %rdi
	call	_ZdlPvm@PLT
	leave
	.cfi_def_cfa 7, 8
	ret
	.cfi_endproc
.LFE3156:
	.size	_ZN6IfNodeD0Ev, .-_ZN6IfNodeD0Ev
	.section	.rodata
.LC32:
	.string	"If "
	.align 8
.LC33:
	.string	"%%%%%%%% True Statement %%%%%%%%"
	.align 8
.LC34:
	.string	"%%%%%%%%%%%%%%%%%%%%%%%%%%%%%%%%"
	.text
	.align 2
	.globl	_ZN6IfNode7printToERSo
	.type	_ZN6IfNode7printToERSo, @function
_ZN6IfNode7printToERSo:
.LFB3157:
	.cfi_startproc
	endbr64
	pushq	%rbp
	.cfi_def_cfa_offset 16
	.cfi_offset 6, -16
	movq	%rsp, %rbp
	.cfi_def_cfa_register 6
	subq	$16, %rsp
	movq	%rdi, -8(%rbp)
	movq	%rsi, -16(%rbp)
	movq	-16(%rbp), %rax
	leaq	.LC32(%rip), %rsi
	movq	%rax, %rdi
	call	_ZStlsISt11char_traitsIcEERSt13basic_ostreamIcT_ES5_PKc@PLT
	movq	%rax, %rdx
	movq	-8(%rbp), %rax
	movq	8(%rax), %rax
	movq	%rax, %rsi
	movq	%rdx, %rdi
	call	_ZlsRSoR8ExprNode
	movq	%rax, %rdx
	movq	_ZSt4endlIcSt11char_traitsIcEERSt13basic_ostreamIT_T0_ES6_@GOTPCREL(%rip), %rax
	movq	%rax, %rsi
	movq	%rdx, %rdi
	call	_ZNSolsEPFRSoS_E@PLT
	leaq	.LC33(%rip), %rsi
	movq	%rax, %rdi
	call	_ZStlsISt11char_traitsIcEERSt13basic_ostreamIcT_ES5_PKc@PLT
	movq	%rax, %rdx
	movq	_ZSt4endlIcSt11char_traitsIcEERSt13basic_ostreamIT_T0_ES6_@GOTPCREL(%rip), %rax
	movq	%rax, %rsi
	movq	%rdx, %rdi
	call	_ZNSolsEPFRSoS_E@PLT
	movq	%rax, %rdx
	movq	-8(%rbp), %rax
	movq	16(%rax), %rax
	movq	%rax, %rsi
	movq	%rdx, %rdi
	call	_ZlsRSoR13StatementNode
	leaq	.LC34(%rip), %rsi
	movq	%rax, %rdi
	call	_ZStlsISt11char_traitsIcEERSt13basic_ostreamIcT_ES5_PKc@PLT
	movq	%rax, %rdx
	movq	_ZSt4endlIcSt11char_traitsIcEERSt13basic_ostreamIT_T0_ES6_@GOTPCREL(%rip), %rax
	movq	%rax, %rsi
	movq	%rdx, %rdi
	call	_ZNSolsEPFRSoS_E@PLT
	nop
	leave
	.cfi_def_cfa 7, 8
	ret
	.cfi_endproc
.LFE3157:
	.size	_ZN6IfNode7printToERSo, .-_ZN6IfNode7printToERSo
	.section	.rodata
.LC35:
	.string	"Deleting a whileNode"
	.text
	.align 2
	.globl	_ZN9WhileNodeD2Ev
	.type	_ZN9WhileNodeD2Ev, @function
_ZN9WhileNodeD2Ev:
.LFB3159:
	.cfi_startproc
	.cfi_personality 0x9b,DW.ref.__gxx_personality_v0
	.cfi_lsda 0x1b,.LLSDA3159
	endbr64
	pushq	%rbp
	.cfi_def_cfa_offset 16
	.cfi_offset 6, -16
	movq	%rsp, %rbp
	.cfi_def_cfa_register 6
	pushq	%rbx
	subq	$40, %rsp
	.cfi_offset 3, -24
	movq	%rdi, -40(%rbp)
	leaq	16+_ZTV9WhileNode(%rip), %rdx
	movq	-40(%rbp), %rax
	movq	%rdx, (%rax)
	leaq	.LC35(%rip), %rsi
	leaq	_ZSt4cout(%rip), %rdi
	call	_ZStlsISt11char_traitsIcEERSt13basic_ostreamIcT_ES5_PKc@PLT
	movq	%rax, %rdx
	movq	_ZSt4endlIcSt11char_traitsIcEERSt13basic_ostreamIT_T0_ES6_@GOTPCREL(%rip), %rax
	movq	%rax, %rsi
	movq	%rdx, %rdi
	call	_ZNSolsEPFRSoS_E@PLT
	movq	-40(%rbp), %rax
	movq	8(%rax), %rbx
	testq	%rbx, %rbx
	je	.L133
	movq	%rbx, %rdi
	call	_ZN8ExprNodeD1Ev
	movl	$56, %esi
	movq	%rbx, %rdi
	call	_ZdlPvm@PLT
.L133:
	movq	-40(%rbp), %rax
	movq	$0, 8(%rax)
	movq	-40(%rbp), %rax
	movq	16(%rax), %rax
	testq	%rax, %rax
	je	.L134
	movq	(%rax), %rdx
	addq	$16, %rdx
	movq	(%rdx), %rdx
	movq	%rax, %rdi
	call	*%rdx
.L134:
	movq	-40(%rbp), %rax
	movq	$0, 16(%rax)
	movq	-40(%rbp), %rax
	addq	$24, %rax
	movq	%rax, %rdi
	call	_ZNKSt6vectorIP13StatementNodeSaIS1_EE4sizeEv
	movl	%eax, -20(%rbp)
	movl	$0, -24(%rbp)
.L137:
	movl	-24(%rbp), %eax
	cmpl	-20(%rbp), %eax
	jge	.L135
	movl	-24(%rbp), %eax
	cltq
	movq	-40(%rbp), %rdx
	addq	$24, %rdx
	movq	%rax, %rsi
	movq	%rdx, %rdi
	call	_ZNSt6vectorIP13StatementNodeSaIS1_EEixEm
	movq	(%rax), %rax
	testq	%rax, %rax
	je	.L136
	movq	(%rax), %rdx
	addq	$16, %rdx
	movq	(%rdx), %rdx
	movq	%rax, %rdi
	call	*%rdx
.L136:
	movl	-24(%rbp), %eax
	cltq
	movq	-40(%rbp), %rdx
	addq	$24, %rdx
	movq	%rax, %rsi
	movq	%rdx, %rdi
	call	_ZNSt6vectorIP13StatementNodeSaIS1_EEixEm
	movq	$0, (%rax)
	addl	$1, -24(%rbp)
	jmp	.L137
.L135:
	movq	-40(%rbp), %rax
	addq	$24, %rax
	movq	%rax, %rdi
	call	_ZNSt6vectorIP13StatementNodeSaIS1_EED1Ev
	movq	-40(%rbp), %rax
	movq	%rax, %rdi
	call	_ZN13StatementNodeD2Ev
	nop
	addq	$40, %rsp
	popq	%rbx
	popq	%rbp
	.cfi_def_cfa 7, 8
	ret
	.cfi_endproc
.LFE3159:
	.section	.gcc_except_table
.LLSDA3159:
	.byte	0xff
	.byte	0xff
	.byte	0x1
	.uleb128 .LLSDACSE3159-.LLSDACSB3159
.LLSDACSB3159:
.LLSDACSE3159:
	.text
	.size	_ZN9WhileNodeD2Ev, .-_ZN9WhileNodeD2Ev
	.globl	_ZN9WhileNodeD1Ev
	.set	_ZN9WhileNodeD1Ev,_ZN9WhileNodeD2Ev
	.align 2
	.globl	_ZN9WhileNodeD0Ev
	.type	_ZN9WhileNodeD0Ev, @function
_ZN9WhileNodeD0Ev:
.LFB3161:
	.cfi_startproc
	endbr64
	pushq	%rbp
	.cfi_def_cfa_offset 16
	.cfi_offset 6, -16
	movq	%rsp, %rbp
	.cfi_def_cfa_register 6
	subq	$16, %rsp
	movq	%rdi, -8(%rbp)
	movq	-8(%rbp), %rax
	movq	%rax, %rdi
	call	_ZN9WhileNodeD1Ev
	movq	-8(%rbp), %rax
	movl	$48, %esi
	movq	%rax, %rdi
	call	_ZdlPvm@PLT
	leave
	.cfi_def_cfa 7, 8
	ret
	.cfi_endproc
.LFE3161:
	.size	_ZN9WhileNodeD0Ev, .-_ZN9WhileNodeD0Ev
	.section	.rodata
.LC36:
	.string	"While "
.LC37:
	.string	"%%%%%%%% Loop Body %%%%%%%%"
.LC38:
	.string	"%%%%%%%%%%%%%%%%%%%%%%%%%%%"
	.text
	.align 2
	.globl	_ZN9WhileNode7printToERSo
	.type	_ZN9WhileNode7printToERSo, @function
_ZN9WhileNode7printToERSo:
.LFB3162:
	.cfi_startproc
	endbr64
	pushq	%rbp
	.cfi_def_cfa_offset 16
	.cfi_offset 6, -16
	movq	%rsp, %rbp
	.cfi_def_cfa_register 6
	subq	$16, %rsp
	movq	%rdi, -8(%rbp)
	movq	%rsi, -16(%rbp)
	movq	-16(%rbp), %rax
	leaq	.LC36(%rip), %rsi
	movq	%rax, %rdi
	call	_ZStlsISt11char_traitsIcEERSt13basic_ostreamIcT_ES5_PKc@PLT
	movq	%rax, %rdx
	movq	-8(%rbp), %rax
	movq	8(%rax), %rax
	movq	%rax, %rsi
	movq	%rdx, %rdi
	call	_ZlsRSoR8ExprNode
	movq	%rax, %rdx
	movq	_ZSt4endlIcSt11char_traitsIcEERSt13basic_ostreamIT_T0_ES6_@GOTPCREL(%rip), %rax
	movq	%rax, %rsi
	movq	%rdx, %rdi
	call	_ZNSolsEPFRSoS_E@PLT
	leaq	.LC37(%rip), %rsi
	movq	%rax, %rdi
	call	_ZStlsISt11char_traitsIcEERSt13basic_ostreamIcT_ES5_PKc@PLT
	movq	%rax, %rdx
	movq	_ZSt4endlIcSt11char_traitsIcEERSt13basic_ostreamIT_T0_ES6_@GOTPCREL(%rip), %rax
	movq	%rax, %rsi
	movq	%rdx, %rdi
	call	_ZNSolsEPFRSoS_E@PLT
	movq	%rax, %rdx
	movq	-8(%rbp), %rax
	movq	16(%rax), %rax
	movq	%rax, %rsi
	movq	%rdx, %rdi
	call	_ZlsRSoR13StatementNode
	movq	%rax, %rdx
	movq	_ZSt4endlIcSt11char_traitsIcEERSt13basic_ostreamIT_T0_ES6_@GOTPCREL(%rip), %rax
	movq	%rax, %rsi
	movq	%rdx, %rdi
	call	_ZNSolsEPFRSoS_E@PLT
	leaq	.LC38(%rip), %rsi
	movq	%rax, %rdi
	call	_ZStlsISt11char_traitsIcEERSt13basic_ostreamIcT_ES5_PKc@PLT
	movq	%rax, %rdx
	movq	_ZSt4endlIcSt11char_traitsIcEERSt13basic_ostreamIT_T0_ES6_@GOTPCREL(%rip), %rax
	movq	%rax, %rsi
	movq	%rdx, %rdi
	call	_ZNSolsEPFRSoS_E@PLT
	nop
	leave
	.cfi_def_cfa 7, 8
	ret
	.cfi_endproc
.LFE3162:
	.size	_ZN9WhileNode7printToERSo, .-_ZN9WhileNode7printToERSo
	.section	.rodata
.LC39:
	.string	"Deleting a readNode"
	.text
	.align 2
	.globl	_ZN8ReadNodeD2Ev
	.type	_ZN8ReadNodeD2Ev, @function
_ZN8ReadNodeD2Ev:
.LFB3164:
	.cfi_startproc
	.cfi_personality 0x9b,DW.ref.__gxx_personality_v0
	.cfi_lsda 0x1b,.LLSDA3164
	endbr64
	pushq	%rbp
	.cfi_def_cfa_offset 16
	.cfi_offset 6, -16
	movq	%rsp, %rbp
	.cfi_def_cfa_register 6
	pushq	%rbx
	subq	$40, %rsp
	.cfi_offset 3, -24
	movq	%rdi, -40(%rbp)
	leaq	16+_ZTV8ReadNode(%rip), %rdx
	movq	-40(%rbp), %rax
	movq	%rdx, (%rax)
	leaq	.LC39(%rip), %rsi
	leaq	_ZSt4cout(%rip), %rdi
	call	_ZStlsISt11char_traitsIcEERSt13basic_ostreamIcT_ES5_PKc@PLT
	movq	%rax, %rdx
	movq	_ZSt4endlIcSt11char_traitsIcEERSt13basic_ostreamIT_T0_ES6_@GOTPCREL(%rip), %rax
	movq	%rax, %rsi
	movq	%rdx, %rdi
	call	_ZNSolsEPFRSoS_E@PLT
	movq	-40(%rbp), %rax
	movq	8(%rax), %rbx
	testq	%rbx, %rbx
	je	.L141
	movq	%rbx, %rdi
	call	_ZNSt7__cxx1112basic_stringIcSt11char_traitsIcESaIcEED1Ev@PLT
	movl	$32, %esi
	movq	%rbx, %rdi
	call	_ZdlPvm@PLT
.L141:
	movq	-40(%rbp), %rax
	movq	$0, 8(%rax)
	movq	-40(%rbp), %rax
	addq	$16, %rax
	movq	%rax, %rdi
	call	_ZNKSt6vectorIP13StatementNodeSaIS1_EE4sizeEv
	movl	%eax, -20(%rbp)
	movl	$0, -24(%rbp)
.L144:
	movl	-24(%rbp), %eax
	cmpl	-20(%rbp), %eax
	jge	.L142
	movl	-24(%rbp), %eax
	cltq
	movq	-40(%rbp), %rdx
	addq	$16, %rdx
	movq	%rax, %rsi
	movq	%rdx, %rdi
	call	_ZNSt6vectorIP13StatementNodeSaIS1_EEixEm
	movq	(%rax), %rax
	testq	%rax, %rax
	je	.L143
	movq	(%rax), %rdx
	addq	$16, %rdx
	movq	(%rdx), %rdx
	movq	%rax, %rdi
	call	*%rdx
.L143:
	movl	-24(%rbp), %eax
	cltq
	movq	-40(%rbp), %rdx
	addq	$16, %rdx
	movq	%rax, %rsi
	movq	%rdx, %rdi
	call	_ZNSt6vectorIP13StatementNodeSaIS1_EEixEm
	movq	$0, (%rax)
	addl	$1, -24(%rbp)
	jmp	.L144
.L142:
	movq	-40(%rbp), %rax
	addq	$16, %rax
	movq	%rax, %rdi
	call	_ZNSt6vectorIP13StatementNodeSaIS1_EED1Ev
	movq	-40(%rbp), %rax
	movq	%rax, %rdi
	call	_ZN13StatementNodeD2Ev
	nop
	addq	$40, %rsp
	popq	%rbx
	popq	%rbp
	.cfi_def_cfa 7, 8
	ret
	.cfi_endproc
.LFE3164:
	.section	.gcc_except_table
.LLSDA3164:
	.byte	0xff
	.byte	0xff
	.byte	0x1
	.uleb128 .LLSDACSE3164-.LLSDACSB3164
.LLSDACSB3164:
.LLSDACSE3164:
	.text
	.size	_ZN8ReadNodeD2Ev, .-_ZN8ReadNodeD2Ev
	.globl	_ZN8ReadNodeD1Ev
	.set	_ZN8ReadNodeD1Ev,_ZN8ReadNodeD2Ev
	.align 2
	.globl	_ZN8ReadNodeD0Ev
	.type	_ZN8ReadNodeD0Ev, @function
_ZN8ReadNodeD0Ev:
.LFB3166:
	.cfi_startproc
	endbr64
	pushq	%rbp
	.cfi_def_cfa_offset 16
	.cfi_offset 6, -16
	movq	%rsp, %rbp
	.cfi_def_cfa_register 6
	subq	$16, %rsp
	movq	%rdi, -8(%rbp)
	movq	-8(%rbp), %rax
	movq	%rax, %rdi
	call	_ZN8ReadNodeD1Ev
	movq	-8(%rbp), %rax
	movl	$40, %esi
	movq	%rax, %rdi
	call	_ZdlPvm@PLT
	leave
	.cfi_def_cfa 7, 8
	ret
	.cfi_endproc
.LFE3166:
	.size	_ZN8ReadNodeD0Ev, .-_ZN8ReadNodeD0Ev
	.section	.rodata
.LC40:
	.string	"Read Value "
	.text
	.align 2
	.globl	_ZN8ReadNode7printToERSo
	.type	_ZN8ReadNode7printToERSo, @function
_ZN8ReadNode7printToERSo:
.LFB3167:
	.cfi_startproc
	endbr64
	pushq	%rbp
	.cfi_def_cfa_offset 16
	.cfi_offset 6, -16
	movq	%rsp, %rbp
	.cfi_def_cfa_register 6
	subq	$16, %rsp
	movq	%rdi, -8(%rbp)
	movq	%rsi, -16(%rbp)
	movq	-16(%rbp), %rax
	leaq	.LC40(%rip), %rsi
	movq	%rax, %rdi
	call	_ZStlsISt11char_traitsIcEERSt13basic_ostreamIcT_ES5_PKc@PLT
	movq	%rax, %rdx
	movq	-8(%rbp), %rax
	movq	8(%rax), %rax
	movq	%rax, %rsi
	movq	%rdx, %rdi
	call	_ZStlsIcSt11char_traitsIcESaIcEERSt13basic_ostreamIT_T0_ES7_RKNSt7__cxx1112basic_stringIS4_S5_T1_EE@PLT
	movq	%rax, %rdx
	movq	_ZSt4endlIcSt11char_traitsIcEERSt13basic_ostreamIT_T0_ES6_@GOTPCREL(%rip), %rax
	movq	%rax, %rsi
	movq	%rdx, %rdi
	call	_ZNSolsEPFRSoS_E@PLT
	nop
	leave
	.cfi_def_cfa 7, 8
	ret
	.cfi_endproc
.LFE3167:
	.size	_ZN8ReadNode7printToERSo, .-_ZN8ReadNode7printToERSo
	.section	.rodata
.LC41:
	.string	"Deleting a writeNode"
	.text
	.align 2
	.globl	_ZN9WriteNodeD2Ev
	.type	_ZN9WriteNodeD2Ev, @function
_ZN9WriteNodeD2Ev:
.LFB3169:
	.cfi_startproc
	.cfi_personality 0x9b,DW.ref.__gxx_personality_v0
	.cfi_lsda 0x1b,.LLSDA3169
	endbr64
	pushq	%rbp
	.cfi_def_cfa_offset 16
	.cfi_offset 6, -16
	movq	%rsp, %rbp
	.cfi_def_cfa_register 6
	pushq	%rbx
	subq	$40, %rsp
	.cfi_offset 3, -24
	movq	%rdi, -40(%rbp)
	leaq	16+_ZTV9WriteNode(%rip), %rdx
	movq	-40(%rbp), %rax
	movq	%rdx, (%rax)
	leaq	.LC41(%rip), %rsi
	leaq	_ZSt4cout(%rip), %rdi
	call	_ZStlsISt11char_traitsIcEERSt13basic_ostreamIcT_ES5_PKc@PLT
	movq	%rax, %rdx
	movq	_ZSt4endlIcSt11char_traitsIcEERSt13basic_ostreamIT_T0_ES6_@GOTPCREL(%rip), %rax
	movq	%rax, %rsi
	movq	%rdx, %rdi
	call	_ZNSolsEPFRSoS_E@PLT
	movq	-40(%rbp), %rax
	movq	8(%rax), %rbx
	testq	%rbx, %rbx
	je	.L148
	movq	%rbx, %rdi
	call	_ZNSt7__cxx1112basic_stringIcSt11char_traitsIcESaIcEED1Ev@PLT
	movl	$32, %esi
	movq	%rbx, %rdi
	call	_ZdlPvm@PLT
.L148:
	movq	-40(%rbp), %rax
	movq	$0, 8(%rax)
	movq	-40(%rbp), %rax
	addq	$16, %rax
	movq	%rax, %rdi
	call	_ZNKSt6vectorIP13StatementNodeSaIS1_EE4sizeEv
	movl	%eax, -20(%rbp)
	movl	$0, -24(%rbp)
.L151:
	movl	-24(%rbp), %eax
	cmpl	-20(%rbp), %eax
	jge	.L149
	movl	-24(%rbp), %eax
	cltq
	movq	-40(%rbp), %rdx
	addq	$16, %rdx
	movq	%rax, %rsi
	movq	%rdx, %rdi
	call	_ZNSt6vectorIP13StatementNodeSaIS1_EEixEm
	movq	(%rax), %rax
	testq	%rax, %rax
	je	.L150
	movq	(%rax), %rdx
	addq	$16, %rdx
	movq	(%rdx), %rdx
	movq	%rax, %rdi
	call	*%rdx
.L150:
	movl	-24(%rbp), %eax
	cltq
	movq	-40(%rbp), %rdx
	addq	$16, %rdx
	movq	%rax, %rsi
	movq	%rdx, %rdi
	call	_ZNSt6vectorIP13StatementNodeSaIS1_EEixEm
	movq	$0, (%rax)
	addl	$1, -24(%rbp)
	jmp	.L151
.L149:
	movq	-40(%rbp), %rax
	addq	$16, %rax
	movq	%rax, %rdi
	call	_ZNSt6vectorIP13StatementNodeSaIS1_EED1Ev
	movq	-40(%rbp), %rax
	movq	%rax, %rdi
	call	_ZN13StatementNodeD2Ev
	nop
	addq	$40, %rsp
	popq	%rbx
	popq	%rbp
	.cfi_def_cfa 7, 8
	ret
	.cfi_endproc
.LFE3169:
	.section	.gcc_except_table
.LLSDA3169:
	.byte	0xff
	.byte	0xff
	.byte	0x1
	.uleb128 .LLSDACSE3169-.LLSDACSB3169
.LLSDACSB3169:
.LLSDACSE3169:
	.text
	.size	_ZN9WriteNodeD2Ev, .-_ZN9WriteNodeD2Ev
	.globl	_ZN9WriteNodeD1Ev
	.set	_ZN9WriteNodeD1Ev,_ZN9WriteNodeD2Ev
	.align 2
	.globl	_ZN9WriteNodeD0Ev
	.type	_ZN9WriteNodeD0Ev, @function
_ZN9WriteNodeD0Ev:
.LFB3171:
	.cfi_startproc
	endbr64
	pushq	%rbp
	.cfi_def_cfa_offset 16
	.cfi_offset 6, -16
	movq	%rsp, %rbp
	.cfi_def_cfa_register 6
	subq	$16, %rsp
	movq	%rdi, -8(%rbp)
	movq	-8(%rbp), %rax
	movq	%rax, %rdi
	call	_ZN9WriteNodeD1Ev
	movq	-8(%rbp), %rax
	movl	$40, %esi
	movq	%rax, %rdi
	call	_ZdlPvm@PLT
	leave
	.cfi_def_cfa 7, 8
	ret
	.cfi_endproc
.LFE3171:
	.size	_ZN9WriteNodeD0Ev, .-_ZN9WriteNodeD0Ev
	.section	.rodata
.LC42:
	.string	"Write "
	.text
	.align 2
	.globl	_ZN9WriteNode7printToERSo
	.type	_ZN9WriteNode7printToERSo, @function
_ZN9WriteNode7printToERSo:
.LFB3172:
	.cfi_startproc
	endbr64
	pushq	%rbp
	.cfi_def_cfa_offset 16
	.cfi_offset 6, -16
	movq	%rsp, %rbp
	.cfi_def_cfa_register 6
	subq	$16, %rsp
	movq	%rdi, -8(%rbp)
	movq	%rsi, -16(%rbp)
	movq	-16(%rbp), %rax
	leaq	.LC42(%rip), %rsi
	movq	%rax, %rdi
	call	_ZStlsISt11char_traitsIcEERSt13basic_ostreamIcT_ES5_PKc@PLT
	movq	%rax, %rdx
	movq	-8(%rbp), %rax
	movq	8(%rax), %rax
	movq	%rax, %rsi
	movq	%rdx, %rdi
	call	_ZStlsIcSt11char_traitsIcESaIcEERSt13basic_ostreamIT_T0_ES7_RKNSt7__cxx1112basic_stringIS4_S5_T1_EE@PLT
	movq	%rax, %rdx
	movq	_ZSt4endlIcSt11char_traitsIcEERSt13basic_ostreamIT_T0_ES6_@GOTPCREL(%rip), %rax
	movq	%rax, %rsi
	movq	%rdx, %rdi
	call	_ZNSolsEPFRSoS_E@PLT
	nop
	leave
	.cfi_def_cfa 7, 8
	ret
	.cfi_endproc
.LFE3172:
	.size	_ZN9WriteNode7printToERSo, .-_ZN9WriteNode7printToERSo
	.globl	_ZlsRSoR9BlockNode
	.type	_ZlsRSoR9BlockNode, @function
_ZlsRSoR9BlockNode:
.LFB3173:
	.cfi_startproc
	endbr64
	pushq	%rbp
	.cfi_def_cfa_offset 16
	.cfi_offset 6, -16
	movq	%rsp, %rbp
	.cfi_def_cfa_register 6
	subq	$16, %rsp
	movq	%rdi, -8(%rbp)
	movq	%rsi, -16(%rbp)
	movq	-16(%rbp), %rax
	movq	(%rax), %rax
	movq	%rax, %rdx
	movq	-8(%rbp), %rax
	movq	%rdx, %rsi
	movq	%rax, %rdi
	call	_ZlsRSoR13StatementNode
	movq	%rax, %rdx
	movq	_ZSt4endlIcSt11char_traitsIcEERSt13basic_ostreamIT_T0_ES6_@GOTPCREL(%rip), %rax
	movq	%rax, %rsi
	movq	%rdx, %rdi
	call	_ZNSolsEPFRSoS_E@PLT
	movq	-8(%rbp), %rax
	leave
	.cfi_def_cfa 7, 8
	ret
	.cfi_endproc
.LFE3173:
	.size	_ZlsRSoR9BlockNode, .-_ZlsRSoR9BlockNode
	.section	.rodata
.LC43:
	.string	"Deleting a blockNode"
	.text
	.align 2
	.globl	_ZN9BlockNodeD2Ev
	.type	_ZN9BlockNodeD2Ev, @function
_ZN9BlockNodeD2Ev:
.LFB3175:
	.cfi_startproc
	.cfi_personality 0x9b,DW.ref.__gxx_personality_v0
	.cfi_lsda 0x1b,.LLSDA3175
	endbr64
	pushq	%rbp
	.cfi_def_cfa_offset 16
	.cfi_offset 6, -16
	movq	%rsp, %rbp
	.cfi_def_cfa_register 6
	subq	$32, %rsp
	movq	%rdi, -24(%rbp)
	leaq	.LC43(%rip), %rsi
	leaq	_ZSt4cout(%rip), %rdi
	call	_ZStlsISt11char_traitsIcEERSt13basic_ostreamIcT_ES5_PKc@PLT
	movq	%rax, %rdx
	movq	_ZSt4endlIcSt11char_traitsIcEERSt13basic_ostreamIT_T0_ES6_@GOTPCREL(%rip), %rax
	movq	%rax, %rsi
	movq	%rdx, %rdi
	call	_ZNSolsEPFRSoS_E@PLT
	movq	-24(%rbp), %rax
	movq	(%rax), %rax
	testq	%rax, %rax
	je	.L157
	movq	(%rax), %rdx
	addq	$16, %rdx
	movq	(%rdx), %rdx
	movq	%rax, %rdi
	call	*%rdx
.L157:
	movq	-24(%rbp), %rax
	movq	$0, (%rax)
	movq	-24(%rbp), %rax
	addq	$8, %rax
	movq	%rax, %rdi
	call	_ZNKSt6vectorIP12CompoundNodeSaIS1_EE4sizeEv
	movl	%eax, -4(%rbp)
	movl	$0, -8(%rbp)
.L160:
	movl	-8(%rbp), %eax
	cmpl	-4(%rbp), %eax
	jge	.L158
	movl	-8(%rbp), %eax
	cltq
	movq	-24(%rbp), %rdx
	addq	$8, %rdx
	movq	%rax, %rsi
	movq	%rdx, %rdi
	call	_ZNSt6vectorIP12CompoundNodeSaIS1_EEixEm
	movq	(%rax), %rax
	testq	%rax, %rax
	je	.L159
	movq	(%rax), %rdx
	addq	$16, %rdx
	movq	(%rdx), %rdx
	movq	%rax, %rdi
	call	*%rdx
.L159:
	movl	-8(%rbp), %eax
	cltq
	movq	-24(%rbp), %rdx
	addq	$8, %rdx
	movq	%rax, %rsi
	movq	%rdx, %rdi
	call	_ZNSt6vectorIP12CompoundNodeSaIS1_EEixEm
	movq	$0, (%rax)
	addl	$1, -8(%rbp)
	jmp	.L160
.L158:
	movq	-24(%rbp), %rax
	addq	$8, %rax
	movq	%rax, %rdi
	call	_ZNSt6vectorIP12CompoundNodeSaIS1_EED1Ev
	nop
	leave
	.cfi_def_cfa 7, 8
	ret
	.cfi_endproc
.LFE3175:
	.section	.gcc_except_table
.LLSDA3175:
	.byte	0xff
	.byte	0xff
	.byte	0x1
	.uleb128 .LLSDACSE3175-.LLSDACSB3175
.LLSDACSB3175:
.LLSDACSE3175:
	.text
	.size	_ZN9BlockNodeD2Ev, .-_ZN9BlockNodeD2Ev
	.globl	_ZN9BlockNodeD1Ev
	.set	_ZN9BlockNodeD1Ev,_ZN9BlockNodeD2Ev
	.section	.rodata
.LC44:
	.string	"Program Name "
	.text
	.globl	_ZlsRSoR11ProgramNode
	.type	_ZlsRSoR11ProgramNode, @function
_ZlsRSoR11ProgramNode:
.LFB3177:
	.cfi_startproc
	endbr64
	pushq	%rbp
	.cfi_def_cfa_offset 16
	.cfi_offset 6, -16
	movq	%rsp, %rbp
	.cfi_def_cfa_register 6
	subq	$16, %rsp
	movq	%rdi, -8(%rbp)
	movq	%rsi, -16(%rbp)
	movq	-8(%rbp), %rax
	leaq	.LC44(%rip), %rsi
	movq	%rax, %rdi
	call	_ZStlsISt11char_traitsIcEERSt13basic_ostreamIcT_ES5_PKc@PLT
	movq	-16(%rbp), %rax
	movq	8(%rax), %rdx
	movq	-8(%rbp), %rax
	movq	%rdx, %rsi
	movq	%rax, %rdi
	call	_ZStlsIcSt11char_traitsIcESaIcEERSt13basic_ostreamIT_T0_ES7_RKNSt7__cxx1112basic_stringIS4_S5_T1_EE@PLT
	movq	%rax, %rdx
	movq	_ZSt4endlIcSt11char_traitsIcEERSt13basic_ostreamIT_T0_ES6_@GOTPCREL(%rip), %rax
	movq	%rax, %rsi
	movq	%rdx, %rdi
	call	_ZNSolsEPFRSoS_E@PLT
	movq	-16(%rbp), %rax
	movq	(%rax), %rdx
	movq	-8(%rbp), %rax
	movq	%rdx, %rsi
	movq	%rax, %rdi
	call	_ZlsRSoR9BlockNode
	movq	-8(%rbp), %rax
	leave
	.cfi_def_cfa 7, 8
	ret
	.cfi_endproc
.LFE3177:
	.size	_ZlsRSoR11ProgramNode, .-_ZlsRSoR11ProgramNode
	.section	.rodata
.LC45:
	.string	"Deleting a programNode"
	.text
	.align 2
	.globl	_ZN11ProgramNodeD2Ev
	.type	_ZN11ProgramNodeD2Ev, @function
_ZN11ProgramNodeD2Ev:
.LFB3179:
	.cfi_startproc
	.cfi_personality 0x9b,DW.ref.__gxx_personality_v0
	.cfi_lsda 0x1b,.LLSDA3179
	endbr64
	pushq	%rbp
	.cfi_def_cfa_offset 16
	.cfi_offset 6, -16
	movq	%rsp, %rbp
	.cfi_def_cfa_register 6
	pushq	%rbx
	subq	$40, %rsp
	.cfi_offset 3, -24
	movq	%rdi, -40(%rbp)
	leaq	.LC45(%rip), %rsi
	leaq	_ZSt4cout(%rip), %rdi
	call	_ZStlsISt11char_traitsIcEERSt13basic_ostreamIcT_ES5_PKc@PLT
	movq	%rax, %rdx
	movq	_ZSt4endlIcSt11char_traitsIcEERSt13basic_ostreamIT_T0_ES6_@GOTPCREL(%rip), %rax
	movq	%rax, %rsi
	movq	%rdx, %rdi
	call	_ZNSolsEPFRSoS_E@PLT
	movq	-40(%rbp), %rax
	movq	(%rax), %rbx
	testq	%rbx, %rbx
	je	.L164
	movq	%rbx, %rdi
	call	_ZN9BlockNodeD1Ev
	movl	$32, %esi
	movq	%rbx, %rdi
	call	_ZdlPvm@PLT
.L164:
	movq	-40(%rbp), %rax
	movq	8(%rax), %rbx
	testq	%rbx, %rbx
	je	.L165
	movq	%rbx, %rdi
	call	_ZNSt7__cxx1112basic_stringIcSt11char_traitsIcESaIcEED1Ev@PLT
	movl	$32, %esi
	movq	%rbx, %rdi
	call	_ZdlPvm@PLT
.L165:
	movq	-40(%rbp), %rax
	movq	$0, (%rax)
	movq	-40(%rbp), %rax
	movq	$0, 8(%rax)
	movq	-40(%rbp), %rax
	addq	$16, %rax
	movq	%rax, %rdi
	call	_ZNKSt6vectorIP9BlockNodeSaIS1_EE4sizeEv
	movl	%eax, -20(%rbp)
	movl	$0, -24(%rbp)
.L168:
	movl	-24(%rbp), %eax
	cmpl	-20(%rbp), %eax
	jge	.L166
	movl	-24(%rbp), %eax
	cltq
	movq	-40(%rbp), %rdx
	addq	$16, %rdx
	movq	%rax, %rsi
	movq	%rdx, %rdi
	call	_ZNSt6vectorIP9BlockNodeSaIS1_EEixEm
	movq	(%rax), %rbx
	testq	%rbx, %rbx
	je	.L167
	movq	%rbx, %rdi
	call	_ZN9BlockNodeD1Ev
	movl	$32, %esi
	movq	%rbx, %rdi
	call	_ZdlPvm@PLT
.L167:
	movl	-24(%rbp), %eax
	cltq
	movq	-40(%rbp), %rdx
	addq	$16, %rdx
	movq	%rax, %rsi
	movq	%rdx, %rdi
	call	_ZNSt6vectorIP9BlockNodeSaIS1_EEixEm
	movq	$0, (%rax)
	addl	$1, -24(%rbp)
	jmp	.L168
.L166:
	movq	-40(%rbp), %rax
	addq	$16, %rax
	movq	%rax, %rdi
	call	_ZNSt6vectorIP9BlockNodeSaIS1_EED1Ev
	nop
	addq	$40, %rsp
	popq	%rbx
	popq	%rbp
	.cfi_def_cfa 7, 8
	ret
	.cfi_endproc
.LFE3179:
	.section	.gcc_except_table
.LLSDA3179:
	.byte	0xff
	.byte	0xff
	.byte	0x1
	.uleb128 .LLSDACSE3179-.LLSDACSB3179
.LLSDACSB3179:
.LLSDACSE3179:
	.text
	.size	_ZN11ProgramNodeD2Ev, .-_ZN11ProgramNodeD2Ev
	.globl	_ZN11ProgramNodeD1Ev
	.set	_ZN11ProgramNodeD1Ev,_ZN11ProgramNodeD2Ev
	.globl	nextToken
	.bss
	.align 4
	.type	nextToken, @object
	.size	nextToken, 4
nextToken:
	.zero	4
	.globl	level
	.align 4
	.type	level, @object
	.size	level, 4
level:
	.zero	4
	.section	.rodata
.LC46:
	.string	"    "
	.section	.text._Z6indentv,"axG",@progbits,_Z6indentv,comdat
	.weak	_Z6indentv
	.type	_Z6indentv, @function
_Z6indentv:
.LFB3181:
	.cfi_startproc
	endbr64
	pushq	%rbp
	.cfi_def_cfa_offset 16
	.cfi_offset 6, -16
	movq	%rsp, %rbp
	.cfi_def_cfa_register 6
	subq	$16, %rsp
	movl	$0, -4(%rbp)
.L171:
	movl	level(%rip), %eax
	cmpl	%eax, -4(%rbp)
	jge	.L172
	leaq	.LC46(%rip), %rsi
	leaq	_ZSt4cout(%rip), %rdi
	call	_ZStlsISt11char_traitsIcEERSt13basic_ostreamIcT_ES5_PKc@PLT
	addl	$1, -4(%rbp)
	jmp	.L171
.L172:
	nop
	leave
	.cfi_def_cfa 7, 8
	ret
	.cfi_endproc
.LFE3181:
	.size	_Z6indentv, .-_Z6indentv
	.section	.rodata
.LC47:
	.string	"-->found "
	.text
	.globl	_Z6outputv
	.type	_Z6outputv, @function
_Z6outputv:
.LFB3182:
	.cfi_startproc
	endbr64
	pushq	%rbp
	.cfi_def_cfa_offset 16
	.cfi_offset 6, -16
	movq	%rsp, %rbp
	.cfi_def_cfa_register 6
	call	_Z6indentv
	leaq	.LC47(%rip), %rsi
	leaq	_ZSt4cout(%rip), %rdi
	call	_ZStlsISt11char_traitsIcEERSt13basic_ostreamIcT_ES5_PKc@PLT
	movq	%rax, %rdx
	movq	yytext(%rip), %rax
	movq	%rax, %rsi
	movq	%rdx, %rdi
	call	_ZStlsISt11char_traitsIcEERSt13basic_ostreamIcT_ES5_PKc@PLT
	movq	%rax, %rdx
	movq	_ZSt4endlIcSt11char_traitsIcEERSt13basic_ostreamIT_T0_ES6_@GOTPCREL(%rip), %rax
	movq	%rax, %rsi
	movq	%rdx, %rdi
	call	_ZNSolsEPFRSoS_E@PLT
	nop
	popq	%rbp
	.cfi_def_cfa 7, 8
	ret
	.cfi_endproc
.LFE3182:
	.size	_Z6outputv, .-_Z6outputv
	.section	.text._ZNSt12_Vector_baseIP9BlockNodeSaIS1_EE12_Vector_implD2Ev,"axG",@progbits,_ZNSt12_Vector_baseIP9BlockNodeSaIS1_EE12_Vector_implD5Ev,comdat
	.align 2
	.weak	_ZNSt12_Vector_baseIP9BlockNodeSaIS1_EE12_Vector_implD2Ev
	.type	_ZNSt12_Vector_baseIP9BlockNodeSaIS1_EE12_Vector_implD2Ev, @function
_ZNSt12_Vector_baseIP9BlockNodeSaIS1_EE12_Vector_implD2Ev:
.LFB3188:
	.cfi_startproc
	endbr64
	pushq	%rbp
	.cfi_def_cfa_offset 16
	.cfi_offset 6, -16
	movq	%rsp, %rbp
	.cfi_def_cfa_register 6
	subq	$16, %rsp
	movq	%rdi, -8(%rbp)
	movq	-8(%rbp), %rax
	movq	%rax, %rdi
	call	_ZNSaIP9BlockNodeED2Ev
	nop
	leave
	.cfi_def_cfa 7, 8
	ret
	.cfi_endproc
.LFE3188:
	.size	_ZNSt12_Vector_baseIP9BlockNodeSaIS1_EE12_Vector_implD2Ev, .-_ZNSt12_Vector_baseIP9BlockNodeSaIS1_EE12_Vector_implD2Ev
	.weak	_ZNSt12_Vector_baseIP9BlockNodeSaIS1_EE12_Vector_implD1Ev
	.set	_ZNSt12_Vector_baseIP9BlockNodeSaIS1_EE12_Vector_implD1Ev,_ZNSt12_Vector_baseIP9BlockNodeSaIS1_EE12_Vector_implD2Ev
	.section	.text._ZNSt12_Vector_baseIP9BlockNodeSaIS1_EEC2Ev,"axG",@progbits,_ZNSt12_Vector_baseIP9BlockNodeSaIS1_EEC5Ev,comdat
	.align 2
	.weak	_ZNSt12_Vector_baseIP9BlockNodeSaIS1_EEC2Ev
	.type	_ZNSt12_Vector_baseIP9BlockNodeSaIS1_EEC2Ev, @function
_ZNSt12_Vector_baseIP9BlockNodeSaIS1_EEC2Ev:
.LFB3190:
	.cfi_startproc
	endbr64
	pushq	%rbp
	.cfi_def_cfa_offset 16
	.cfi_offset 6, -16
	movq	%rsp, %rbp
	.cfi_def_cfa_register 6
	subq	$16, %rsp
	movq	%rdi, -8(%rbp)
	movq	-8(%rbp), %rax
	movq	%rax, %rdi
	call	_ZNSt12_Vector_baseIP9BlockNodeSaIS1_EE12_Vector_implC1Ev
	nop
	leave
	.cfi_def_cfa 7, 8
	ret
	.cfi_endproc
.LFE3190:
	.size	_ZNSt12_Vector_baseIP9BlockNodeSaIS1_EEC2Ev, .-_ZNSt12_Vector_baseIP9BlockNodeSaIS1_EEC2Ev
	.weak	_ZNSt12_Vector_baseIP9BlockNodeSaIS1_EEC1Ev
	.set	_ZNSt12_Vector_baseIP9BlockNodeSaIS1_EEC1Ev,_ZNSt12_Vector_baseIP9BlockNodeSaIS1_EEC2Ev
	.section	.text._ZNSt6vectorIP9BlockNodeSaIS1_EEC2Ev,"axG",@progbits,_ZNSt6vectorIP9BlockNodeSaIS1_EEC5Ev,comdat
	.align 2
	.weak	_ZNSt6vectorIP9BlockNodeSaIS1_EEC2Ev
	.type	_ZNSt6vectorIP9BlockNodeSaIS1_EEC2Ev, @function
_ZNSt6vectorIP9BlockNodeSaIS1_EEC2Ev:
.LFB3192:
	.cfi_startproc
	endbr64
	pushq	%rbp
	.cfi_def_cfa_offset 16
	.cfi_offset 6, -16
	movq	%rsp, %rbp
	.cfi_def_cfa_register 6
	subq	$16, %rsp
	movq	%rdi, -8(%rbp)
	movq	-8(%rbp), %rax
	movq	%rax, %rdi
	call	_ZNSt12_Vector_baseIP9BlockNodeSaIS1_EEC2Ev
	nop
	leave
	.cfi_def_cfa 7, 8
	ret
	.cfi_endproc
.LFE3192:
	.size	_ZNSt6vectorIP9BlockNodeSaIS1_EEC2Ev, .-_ZNSt6vectorIP9BlockNodeSaIS1_EEC2Ev
	.weak	_ZNSt6vectorIP9BlockNodeSaIS1_EEC1Ev
	.set	_ZNSt6vectorIP9BlockNodeSaIS1_EEC1Ev,_ZNSt6vectorIP9BlockNodeSaIS1_EEC2Ev
	.section	.text._ZN11ProgramNodeC2Ev,"axG",@progbits,_ZN11ProgramNodeC5Ev,comdat
	.align 2
	.weak	_ZN11ProgramNodeC2Ev
	.type	_ZN11ProgramNodeC2Ev, @function
_ZN11ProgramNodeC2Ev:
.LFB3194:
	.cfi_startproc
	endbr64
	pushq	%rbp
	.cfi_def_cfa_offset 16
	.cfi_offset 6, -16
	movq	%rsp, %rbp
	.cfi_def_cfa_register 6
	subq	$16, %rsp
	movq	%rdi, -8(%rbp)
	movq	-8(%rbp), %rax
	movq	$0, (%rax)
	movq	-8(%rbp), %rax
	movq	$0, 8(%rax)
	movq	-8(%rbp), %rax
	addq	$16, %rax
	movq	%rax, %rdi
	call	_ZNSt6vectorIP9BlockNodeSaIS1_EEC1Ev
	nop
	leave
	.cfi_def_cfa 7, 8
	ret
	.cfi_endproc
.LFE3194:
	.size	_ZN11ProgramNodeC2Ev, .-_ZN11ProgramNodeC2Ev
	.weak	_ZN11ProgramNodeC1Ev
	.set	_ZN11ProgramNodeC1Ev,_ZN11ProgramNodeC2Ev
	.section	.rodata
.LC48:
	.string	"3: 'PROGRAM' expected"
	.align 8
.LC49:
	.string	"term does not start with 'PROGRAM"
.LC50:
	.string	"enter <program>"
.LC51:
	.string	"exit <program>"
	.text
	.globl	_Z7programv
	.type	_Z7programv, @function
_Z7programv:
.LFB3183:
	.cfi_startproc
	.cfi_personality 0x9b,DW.ref.__gxx_personality_v0
	.cfi_lsda 0x1b,.LLSDA3183
	endbr64
	pushq	%rbp
	.cfi_def_cfa_offset 16
	.cfi_offset 6, -16
	movq	%rsp, %rbp
	.cfi_def_cfa_register 6
	pushq	%r12
	pushq	%rbx
	subq	$32, %rsp
	.cfi_offset 12, -24
	.cfi_offset 3, -32
	movq	%fs:40, %rax
	movq	%rax, -24(%rbp)
	xorl	%eax, %eax
	call	_Z16first_of_programv
	xorl	$1, %eax
	testb	%al, %al
	je	.L179
	movl	$8, %edi
	call	__cxa_allocate_exception@PLT
	leaq	.LC48(%rip), %rdx
	movq	%rdx, (%rax)
	movl	$0, %edx
	leaq	_ZTIPKc(%rip), %rsi
	movq	%rax, %rdi
.LEHB11:
	call	__cxa_throw@PLT
.L179:
	leaq	.LC49(%rip), %rax
	movq	%rax, -40(%rbp)
	call	_Z6indentv
	leaq	.LC50(%rip), %rsi
	leaq	_ZSt4cout(%rip), %rdi
	call	_ZStlsISt11char_traitsIcEERSt13basic_ostreamIcT_ES5_PKc@PLT
	movq	%rax, %rdx
	movq	_ZSt4endlIcSt11char_traitsIcEERSt13basic_ostreamIT_T0_ES6_@GOTPCREL(%rip), %rax
	movq	%rax, %rsi
	movq	%rdx, %rdi
	call	_ZNSolsEPFRSoS_E@PLT
	movl	level(%rip), %eax
	addl	$1, %eax
	movl	%eax, level(%rip)
	movl	$40, %edi
	call	_Znwm@PLT
	movq	%rax, %rbx
	movq	%rbx, %rdi
	call	_ZN11ProgramNodeC1Ev
	movq	%rbx, -32(%rbp)
.L183:
	movl	nextToken(%rip), %eax
	cmpl	$1009, %eax
	je	.L180
	movl	nextToken(%rip), %eax
	cmpl	$4000, %eax
	je	.L180
	movl	nextToken(%rip), %eax
	cmpl	$2000, %eax
	jne	.L181
.L180:
	call	_Z6indentv
	leaq	.LC47(%rip), %rsi
	leaq	_ZSt4cout(%rip), %rdi
	call	_ZStlsISt11char_traitsIcEERSt13basic_ostreamIcT_ES5_PKc@PLT
	movq	%rax, %rdx
	movq	yytext(%rip), %rax
	movq	%rax, %rsi
	movq	%rdx, %rdi
	call	_ZStlsISt11char_traitsIcEERSt13basic_ostreamIcT_ES5_PKc@PLT
	movq	%rax, %rdx
	movq	_ZSt4endlIcSt11char_traitsIcEERSt13basic_ostreamIT_T0_ES6_@GOTPCREL(%rip), %rax
	movq	%rax, %rsi
	movq	%rdx, %rdi
	call	_ZNSolsEPFRSoS_E@PLT
	call	yylex@PLT
.LEHE11:
	movl	%eax, nextToken(%rip)
	movl	nextToken(%rip), %eax
	cmpl	$4000, %eax
	jne	.L183
	leaq	-41(%rbp), %rax
	movq	%rax, %rdi
	call	_ZNSaIcEC1Ev@PLT
	leaq	-41(%rbp), %r12
	movl	$32, %edi
.LEHB12:
	call	_Znwm@PLT
.LEHE12:
	movq	%rax, %rbx
	movq	yytext(%rip), %rax
	movq	%r12, %rdx
	movq	%rax, %rsi
	movq	%rbx, %rdi
.LEHB13:
	call	_ZNSt7__cxx1112basic_stringIcSt11char_traitsIcESaIcEEC1EPKcRKS3_@PLT
.LEHE13:
	movq	-32(%rbp), %rax
	movq	%rbx, 8(%rax)
	leaq	-41(%rbp), %rax
	movq	%rax, %rdi
	call	_ZNSaIcED1Ev@PLT
	jmp	.L183
.L181:
	call	_Z14first_of_blockv
	testb	%al, %al
	je	.L184
.LEHB14:
	call	_Z5blockv
	movq	-32(%rbp), %rdx
	movq	%rax, (%rdx)
	movl	level(%rip), %eax
	subl	$1, %eax
	movl	%eax, level(%rip)
	call	_Z6indentv
	leaq	.LC51(%rip), %rsi
	leaq	_ZSt4cout(%rip), %rdi
	call	_ZStlsISt11char_traitsIcEERSt13basic_ostreamIcT_ES5_PKc@PLT
	movq	%rax, %rdx
	movq	_ZSt4endlIcSt11char_traitsIcEERSt13basic_ostreamIT_T0_ES6_@GOTPCREL(%rip), %rax
	movq	%rax, %rsi
	movq	%rdx, %rdi
	call	_ZNSolsEPFRSoS_E@PLT
	movq	-32(%rbp), %rax
	movq	-24(%rbp), %rcx
	xorq	%fs:40, %rcx
	je	.L189
	jmp	.L192
.L184:
	movl	$8, %edi
	call	__cxa_allocate_exception@PLT
	movq	-40(%rbp), %rdx
	movq	%rdx, (%rax)
	movl	$0, %edx
	leaq	_ZTIPKc(%rip), %rsi
	movq	%rax, %rdi
	call	__cxa_throw@PLT
.L191:
	endbr64
	movq	%rax, %r12
	movl	$32, %esi
	movq	%rbx, %rdi
	call	_ZdlPvm@PLT
	movq	%r12, %rbx
	jmp	.L188
.L190:
	endbr64
	movq	%rax, %rbx
.L188:
	leaq	-41(%rbp), %rax
	movq	%rax, %rdi
	call	_ZNSaIcED1Ev@PLT
	movq	%rbx, %rax
	movq	%rax, %rdi
	call	_Unwind_Resume@PLT
.LEHE14:
.L192:
	call	__stack_chk_fail@PLT
.L189:
	addq	$32, %rsp
	popq	%rbx
	popq	%r12
	popq	%rbp
	.cfi_def_cfa 7, 8
	ret
	.cfi_endproc
.LFE3183:
	.section	.gcc_except_table
.LLSDA3183:
	.byte	0xff
	.byte	0xff
	.byte	0x1
	.uleb128 .LLSDACSE3183-.LLSDACSB3183
.LLSDACSB3183:
	.uleb128 .LEHB11-.LFB3183
	.uleb128 .LEHE11-.LEHB11
	.uleb128 0
	.uleb128 0
	.uleb128 .LEHB12-.LFB3183
	.uleb128 .LEHE12-.LEHB12
	.uleb128 .L190-.LFB3183
	.uleb128 0
	.uleb128 .LEHB13-.LFB3183
	.uleb128 .LEHE13-.LEHB13
	.uleb128 .L191-.LFB3183
	.uleb128 0
	.uleb128 .LEHB14-.LFB3183
	.uleb128 .LEHE14-.LEHB14
	.uleb128 0
	.uleb128 0
.LLSDACSE3183:
	.text
	.size	_Z7programv, .-_Z7programv
	.section	.text._ZNSt12_Vector_baseIP12CompoundNodeSaIS1_EE12_Vector_implD2Ev,"axG",@progbits,_ZNSt12_Vector_baseIP12CompoundNodeSaIS1_EE12_Vector_implD5Ev,comdat
	.align 2
	.weak	_ZNSt12_Vector_baseIP12CompoundNodeSaIS1_EE12_Vector_implD2Ev
	.type	_ZNSt12_Vector_baseIP12CompoundNodeSaIS1_EE12_Vector_implD2Ev, @function
_ZNSt12_Vector_baseIP12CompoundNodeSaIS1_EE12_Vector_implD2Ev:
.LFB3201:
	.cfi_startproc
	endbr64
	pushq	%rbp
	.cfi_def_cfa_offset 16
	.cfi_offset 6, -16
	movq	%rsp, %rbp
	.cfi_def_cfa_register 6
	subq	$16, %rsp
	movq	%rdi, -8(%rbp)
	movq	-8(%rbp), %rax
	movq	%rax, %rdi
	call	_ZNSaIP12CompoundNodeED2Ev
	nop
	leave
	.cfi_def_cfa 7, 8
	ret
	.cfi_endproc
.LFE3201:
	.size	_ZNSt12_Vector_baseIP12CompoundNodeSaIS1_EE12_Vector_implD2Ev, .-_ZNSt12_Vector_baseIP12CompoundNodeSaIS1_EE12_Vector_implD2Ev
	.weak	_ZNSt12_Vector_baseIP12CompoundNodeSaIS1_EE12_Vector_implD1Ev
	.set	_ZNSt12_Vector_baseIP12CompoundNodeSaIS1_EE12_Vector_implD1Ev,_ZNSt12_Vector_baseIP12CompoundNodeSaIS1_EE12_Vector_implD2Ev
	.section	.text._ZNSt12_Vector_baseIP12CompoundNodeSaIS1_EEC2Ev,"axG",@progbits,_ZNSt12_Vector_baseIP12CompoundNodeSaIS1_EEC5Ev,comdat
	.align 2
	.weak	_ZNSt12_Vector_baseIP12CompoundNodeSaIS1_EEC2Ev
	.type	_ZNSt12_Vector_baseIP12CompoundNodeSaIS1_EEC2Ev, @function
_ZNSt12_Vector_baseIP12CompoundNodeSaIS1_EEC2Ev:
.LFB3203:
	.cfi_startproc
	endbr64
	pushq	%rbp
	.cfi_def_cfa_offset 16
	.cfi_offset 6, -16
	movq	%rsp, %rbp
	.cfi_def_cfa_register 6
	subq	$16, %rsp
	movq	%rdi, -8(%rbp)
	movq	-8(%rbp), %rax
	movq	%rax, %rdi
	call	_ZNSt12_Vector_baseIP12CompoundNodeSaIS1_EE12_Vector_implC1Ev
	nop
	leave
	.cfi_def_cfa 7, 8
	ret
	.cfi_endproc
.LFE3203:
	.size	_ZNSt12_Vector_baseIP12CompoundNodeSaIS1_EEC2Ev, .-_ZNSt12_Vector_baseIP12CompoundNodeSaIS1_EEC2Ev
	.weak	_ZNSt12_Vector_baseIP12CompoundNodeSaIS1_EEC1Ev
	.set	_ZNSt12_Vector_baseIP12CompoundNodeSaIS1_EEC1Ev,_ZNSt12_Vector_baseIP12CompoundNodeSaIS1_EEC2Ev
	.section	.text._ZNSt6vectorIP12CompoundNodeSaIS1_EEC2Ev,"axG",@progbits,_ZNSt6vectorIP12CompoundNodeSaIS1_EEC5Ev,comdat
	.align 2
	.weak	_ZNSt6vectorIP12CompoundNodeSaIS1_EEC2Ev
	.type	_ZNSt6vectorIP12CompoundNodeSaIS1_EEC2Ev, @function
_ZNSt6vectorIP12CompoundNodeSaIS1_EEC2Ev:
.LFB3205:
	.cfi_startproc
	endbr64
	pushq	%rbp
	.cfi_def_cfa_offset 16
	.cfi_offset 6, -16
	movq	%rsp, %rbp
	.cfi_def_cfa_register 6
	subq	$16, %rsp
	movq	%rdi, -8(%rbp)
	movq	-8(%rbp), %rax
	movq	%rax, %rdi
	call	_ZNSt12_Vector_baseIP12CompoundNodeSaIS1_EEC2Ev
	nop
	leave
	.cfi_def_cfa 7, 8
	ret
	.cfi_endproc
.LFE3205:
	.size	_ZNSt6vectorIP12CompoundNodeSaIS1_EEC2Ev, .-_ZNSt6vectorIP12CompoundNodeSaIS1_EEC2Ev
	.weak	_ZNSt6vectorIP12CompoundNodeSaIS1_EEC1Ev
	.set	_ZNSt6vectorIP12CompoundNodeSaIS1_EEC1Ev,_ZNSt6vectorIP12CompoundNodeSaIS1_EEC2Ev
	.section	.text._ZN9BlockNodeC2Ev,"axG",@progbits,_ZN9BlockNodeC5Ev,comdat
	.align 2
	.weak	_ZN9BlockNodeC2Ev
	.type	_ZN9BlockNodeC2Ev, @function
_ZN9BlockNodeC2Ev:
.LFB3207:
	.cfi_startproc
	endbr64
	pushq	%rbp
	.cfi_def_cfa_offset 16
	.cfi_offset 6, -16
	movq	%rsp, %rbp
	.cfi_def_cfa_register 6
	subq	$16, %rsp
	movq	%rdi, -8(%rbp)
	movq	-8(%rbp), %rax
	movq	$0, (%rax)
	movq	-8(%rbp), %rax
	addq	$8, %rax
	movq	%rax, %rdi
	call	_ZNSt6vectorIP12CompoundNodeSaIS1_EEC1Ev
	nop
	leave
	.cfi_def_cfa 7, 8
	ret
	.cfi_endproc
.LFE3207:
	.size	_ZN9BlockNodeC2Ev, .-_ZN9BlockNodeC2Ev
	.weak	_ZN9BlockNodeC1Ev
	.set	_ZN9BlockNodeC1Ev,_ZN9BlockNodeC2Ev
	.section	.rodata
	.align 8
.LC52:
	.string	"18: error in declaration part OR 17: 'BEGIN' expected"
.LC53:
	.string	"enter <block>"
	.align 8
.LC54:
	.string	"101: identifier declared twice"
.LC55:
	.string	"17: 'BEGIN' expected"
.LC56:
	.string	"exit <block>"
	.text
	.globl	_Z5blockv
	.type	_Z5blockv, @function
_Z5blockv:
.LFB3196:
	.cfi_startproc
	.cfi_personality 0x9b,DW.ref.__gxx_personality_v0
	.cfi_lsda 0x1b,.LLSDA3196
	endbr64
	pushq	%rbp
	.cfi_def_cfa_offset 16
	.cfi_offset 6, -16
	movq	%rsp, %rbp
	.cfi_def_cfa_register 6
	pushq	%rbx
	subq	$72, %rsp
	.cfi_offset 3, -24
	movq	%fs:40, %rax
	movq	%rax, -24(%rbp)
	xorl	%eax, %eax
	call	_Z14first_of_blockv
	xorl	$1, %eax
	testb	%al, %al
	je	.L198
	movl	$8, %edi
	call	__cxa_allocate_exception@PLT
	leaq	.LC52(%rip), %rdx
	movq	%rdx, (%rax)
	movl	$0, %edx
	leaq	_ZTIPKc(%rip), %rsi
	movq	%rax, %rdi
.LEHB15:
	call	__cxa_throw@PLT
.L198:
	call	_Z6indentv
	leaq	.LC53(%rip), %rsi
	leaq	_ZSt4cout(%rip), %rdi
	call	_ZStlsISt11char_traitsIcEERSt13basic_ostreamIcT_ES5_PKc@PLT
	movq	%rax, %rdx
	movq	_ZSt4endlIcSt11char_traitsIcEERSt13basic_ostreamIT_T0_ES6_@GOTPCREL(%rip), %rax
	movq	%rax, %rsi
	movq	%rdx, %rdi
	call	_ZNSolsEPFRSoS_E@PLT
	movl	level(%rip), %eax
	addl	$1, %eax
	movl	%eax, level(%rip)
	movl	$32, %edi
	call	_Znwm@PLT
	movq	%rax, %rbx
	movq	%rbx, %rdi
	call	_ZN9BlockNodeC1Ev
	movq	%rbx, -72(%rbp)
	movl	nextToken(%rip), %eax
	cmpl	$1014, %eax
	je	.L199
	movl	nextToken(%rip), %eax
	cmpl	$4000, %eax
	je	.L199
	movl	nextToken(%rip), %eax
	cmpl	$2001, %eax
	jne	.L200
.L199:
	call	_Z6indentv
	leaq	.LC47(%rip), %rsi
	leaq	_ZSt4cout(%rip), %rdi
	call	_ZStlsISt11char_traitsIcEERSt13basic_ostreamIcT_ES5_PKc@PLT
	movq	%rax, %rdx
	movq	yytext(%rip), %rax
	movq	%rax, %rsi
	movq	%rdx, %rdi
	call	_ZStlsISt11char_traitsIcEERSt13basic_ostreamIcT_ES5_PKc@PLT
	movq	%rax, %rdx
	movq	_ZSt4endlIcSt11char_traitsIcEERSt13basic_ostreamIT_T0_ES6_@GOTPCREL(%rip), %rax
	movq	%rax, %rsi
	movq	%rdx, %rdi
	call	_ZNSolsEPFRSoS_E@PLT
	call	yylex@PLT
.LEHE15:
	movl	%eax, nextToken(%rip)
.L205:
	movl	nextToken(%rip), %eax
	cmpl	$1000, %eax
	je	.L201
	movl	nextToken(%rip), %eax
	cmpl	$4000, %eax
	jne	.L202
	leaq	-73(%rbp), %rax
	movq	%rax, %rdi
	call	_ZNSaIcEC1Ev@PLT
	movq	yytext(%rip), %rcx
	leaq	-73(%rbp), %rdx
	leaq	-64(%rbp), %rax
	movq	%rcx, %rsi
	movq	%rax, %rdi
.LEHB16:
	call	_ZNSt7__cxx1112basic_stringIcSt11char_traitsIcESaIcEEC1EPKcRKS3_@PLT
.LEHE16:
	leaq	-64(%rbp), %rax
	movq	%rax, %rsi
	leaq	_Z11symbolTableB5cxx11(%rip), %rdi
.LEHB17:
	call	_ZNKSt3setINSt7__cxx1112basic_stringIcSt11char_traitsIcESaIcEEESt4lessIS5_ESaIS5_EE5countERKS5_
.LEHE17:
	testq	%rax, %rax
	setne	%bl
	leaq	-64(%rbp), %rax
	movq	%rax, %rdi
	call	_ZNSt7__cxx1112basic_stringIcSt11char_traitsIcESaIcEED1Ev@PLT
	leaq	-73(%rbp), %rax
	movq	%rax, %rdi
	call	_ZNSaIcED1Ev@PLT
	testb	%bl, %bl
	je	.L203
	movl	$8, %edi
	call	__cxa_allocate_exception@PLT
	leaq	.LC54(%rip), %rdx
	movq	%rdx, (%rax)
	movl	$0, %edx
	leaq	_ZTIPKc(%rip), %rsi
	movq	%rax, %rdi
.LEHB18:
	call	__cxa_throw@PLT
.LEHE18:
.L203:
	leaq	-73(%rbp), %rax
	movq	%rax, %rdi
	call	_ZNSaIcEC1Ev@PLT
	movq	yytext(%rip), %rcx
	leaq	-73(%rbp), %rdx
	leaq	-64(%rbp), %rax
	movq	%rcx, %rsi
	movq	%rax, %rdi
.LEHB19:
	call	_ZNSt7__cxx1112basic_stringIcSt11char_traitsIcESaIcEEC1EPKcRKS3_@PLT
.LEHE19:
	leaq	-64(%rbp), %rax
	movq	%rax, %rsi
	leaq	_Z11symbolTableB5cxx11(%rip), %rdi
.LEHB20:
	call	_ZNSt3setINSt7__cxx1112basic_stringIcSt11char_traitsIcESaIcEEESt4lessIS5_ESaIS5_EE6insertEOS5_
.LEHE20:
	leaq	-64(%rbp), %rax
	movq	%rax, %rdi
	call	_ZNSt7__cxx1112basic_stringIcSt11char_traitsIcESaIcEED1Ev@PLT
	leaq	-73(%rbp), %rax
	movq	%rax, %rdi
	call	_ZNSaIcED1Ev@PLT
.L202:
.LEHB21:
	call	_Z6indentv
	leaq	.LC47(%rip), %rsi
	leaq	_ZSt4cout(%rip), %rdi
	call	_ZStlsISt11char_traitsIcEERSt13basic_ostreamIcT_ES5_PKc@PLT
	movq	%rax, %rdx
	movq	yytext(%rip), %rax
	movq	%rax, %rsi
	movq	%rdx, %rdi
	call	_ZStlsISt11char_traitsIcEERSt13basic_ostreamIcT_ES5_PKc@PLT
	movq	%rax, %rdx
	movq	_ZSt4endlIcSt11char_traitsIcEERSt13basic_ostreamIT_T0_ES6_@GOTPCREL(%rip), %rax
	movq	%rax, %rsi
	movq	%rdx, %rdi
	call	_ZNSolsEPFRSoS_E@PLT
	movl	nextToken(%rip), %eax
	cmpl	$2000, %eax
	jne	.L204
	movq	_ZSt4endlIcSt11char_traitsIcEERSt13basic_ostreamIT_T0_ES6_@GOTPCREL(%rip), %rax
	movq	%rax, %rsi
	leaq	_ZSt4cout(%rip), %rdi
	call	_ZNSolsEPFRSoS_E@PLT
.L204:
	call	yylex@PLT
	movl	%eax, nextToken(%rip)
	jmp	.L205
.L201:
	call	_Z17first_of_compoundv
	testb	%al, %al
	je	.L206
	call	_Z8compoundv
	movq	-72(%rbp), %rdx
	movq	%rax, (%rdx)
	jmp	.L200
.L206:
	movl	$8, %edi
	call	__cxa_allocate_exception@PLT
	leaq	.LC55(%rip), %rdx
	movq	%rdx, (%rax)
	movl	$0, %edx
	leaq	_ZTIPKc(%rip), %rsi
	movq	%rax, %rdi
	call	__cxa_throw@PLT
.L200:
	movl	nextToken(%rip), %eax
	cmpl	$1000, %eax
	jne	.L207
	call	_Z8compoundv
	movq	-72(%rbp), %rdx
	movq	%rax, (%rdx)
.L207:
	movl	level(%rip), %eax
	subl	$1, %eax
	movl	%eax, level(%rip)
	call	_Z6indentv
	leaq	.LC56(%rip), %rsi
	leaq	_ZSt4cout(%rip), %rdi
	call	_ZStlsISt11char_traitsIcEERSt13basic_ostreamIcT_ES5_PKc@PLT
	movq	%rax, %rdx
	movq	_ZSt4endlIcSt11char_traitsIcEERSt13basic_ostreamIT_T0_ES6_@GOTPCREL(%rip), %rax
	movq	%rax, %rsi
	movq	%rdx, %rdi
	call	_ZNSolsEPFRSoS_E@PLT
	movq	-72(%rbp), %rax
	movq	-24(%rbp), %rcx
	xorq	%fs:40, %rcx
	je	.L213
	jmp	.L218
.L215:
	endbr64
	movq	%rax, %rbx
	leaq	-64(%rbp), %rax
	movq	%rax, %rdi
	call	_ZNSt7__cxx1112basic_stringIcSt11char_traitsIcESaIcEED1Ev@PLT
	jmp	.L210
.L214:
	endbr64
	movq	%rax, %rbx
.L210:
	leaq	-73(%rbp), %rax
	movq	%rax, %rdi
	call	_ZNSaIcED1Ev@PLT
	movq	%rbx, %rax
	movq	%rax, %rdi
	call	_Unwind_Resume@PLT
.L217:
	endbr64
	movq	%rax, %rbx
	leaq	-64(%rbp), %rax
	movq	%rax, %rdi
	call	_ZNSt7__cxx1112basic_stringIcSt11char_traitsIcESaIcEED1Ev@PLT
	jmp	.L212
.L216:
	endbr64
	movq	%rax, %rbx
.L212:
	leaq	-73(%rbp), %rax
	movq	%rax, %rdi
	call	_ZNSaIcED1Ev@PLT
	movq	%rbx, %rax
	movq	%rax, %rdi
	call	_Unwind_Resume@PLT
.LEHE21:
.L218:
	call	__stack_chk_fail@PLT
.L213:
	addq	$72, %rsp
	popq	%rbx
	popq	%rbp
	.cfi_def_cfa 7, 8
	ret
	.cfi_endproc
.LFE3196:
	.section	.gcc_except_table
.LLSDA3196:
	.byte	0xff
	.byte	0xff
	.byte	0x1
	.uleb128 .LLSDACSE3196-.LLSDACSB3196
.LLSDACSB3196:
	.uleb128 .LEHB15-.LFB3196
	.uleb128 .LEHE15-.LEHB15
	.uleb128 0
	.uleb128 0
	.uleb128 .LEHB16-.LFB3196
	.uleb128 .LEHE16-.LEHB16
	.uleb128 .L214-.LFB3196
	.uleb128 0
	.uleb128 .LEHB17-.LFB3196
	.uleb128 .LEHE17-.LEHB17
	.uleb128 .L215-.LFB3196
	.uleb128 0
	.uleb128 .LEHB18-.LFB3196
	.uleb128 .LEHE18-.LEHB18
	.uleb128 0
	.uleb128 0
	.uleb128 .LEHB19-.LFB3196
	.uleb128 .LEHE19-.LEHB19
	.uleb128 .L216-.LFB3196
	.uleb128 0
	.uleb128 .LEHB20-.LFB3196
	.uleb128 .LEHE20-.LEHB20
	.uleb128 .L217-.LFB3196
	.uleb128 0
	.uleb128 .LEHB21-.LFB3196
	.uleb128 .LEHE21-.LEHB21
	.uleb128 0
	.uleb128 0
.LLSDACSE3196:
	.text
	.size	_Z5blockv, .-_Z5blockv
	.section	.rodata
	.align 8
.LC57:
	.string	"900: illegal type of statement"
.LC58:
	.string	"enter <statement>"
.LC59:
	.string	"2: identifier expected"
.LC60:
	.string	"999: an error has occured"
	.align 8
.LC61:
	.string	"134: illegal type of operand(s)"
.LC62:
	.string	"SYNTAX ERROR"
.LC63:
	.string	"exit <statement>"
	.text
	.globl	_Z9statementv
	.type	_Z9statementv, @function
_Z9statementv:
.LFB3209:
	.cfi_startproc
	endbr64
	pushq	%rbp
	.cfi_def_cfa_offset 16
	.cfi_offset 6, -16
	movq	%rsp, %rbp
	.cfi_def_cfa_register 6
	subq	$16, %rsp
	call	_Z18first_of_statementv
	xorl	$1, %eax
	testb	%al, %al
	je	.L220
	movl	$8, %edi
	call	__cxa_allocate_exception@PLT
	leaq	.LC57(%rip), %rdx
	movq	%rdx, (%rax)
	movl	$0, %edx
	leaq	_ZTIPKc(%rip), %rsi
	movq	%rax, %rdi
	call	__cxa_throw@PLT
.L220:
	call	_Z6indentv
	leaq	.LC58(%rip), %rsi
	leaq	_ZSt4cout(%rip), %rdi
	call	_ZStlsISt11char_traitsIcEERSt13basic_ostreamIcT_ES5_PKc@PLT
	movq	%rax, %rdx
	movq	_ZSt4endlIcSt11char_traitsIcEERSt13basic_ostreamIT_T0_ES6_@GOTPCREL(%rip), %rax
	movq	%rax, %rsi
	movq	%rdx, %rdi
	call	_ZNSolsEPFRSoS_E@PLT
	movl	level(%rip), %eax
	addl	$1, %eax
	movl	%eax, level(%rip)
	movq	$0, -8(%rbp)
	movl	nextToken(%rip), %eax
	cmpl	$1016, %eax
	jg	.L221
	cmpl	$1000, %eax
	jl	.L222
	subl	$1000, %eax
	cmpl	$16, %eax
	ja	.L222
	movl	%eax, %eax
	leaq	0(,%rax,4), %rdx
	leaq	.L224(%rip), %rax
	movl	(%rdx,%rax), %eax
	cltq
	leaq	.L224(%rip), %rdx
	addq	%rdx, %rax
	notrack jmp	*%rax
	.section	.rodata
	.align 4
	.align 4
.L224:
	.long	.L228-.L224
	.long	.L222-.L224
	.long	.L222-.L224
	.long	.L222-.L224
	.long	.L222-.L224
	.long	.L222-.L224
	.long	.L222-.L224
	.long	.L227-.L224
	.long	.L222-.L224
	.long	.L222-.L224
	.long	.L226-.L224
	.long	.L222-.L224
	.long	.L222-.L224
	.long	.L222-.L224
	.long	.L222-.L224
	.long	.L225-.L224
	.long	.L223-.L224
	.text
.L221:
	cmpl	$4000, %eax
	jne	.L222
	call	_Z19first_of_assignmentv
	xorl	$1, %eax
	testb	%al, %al
	je	.L229
	movl	$8, %edi
	call	__cxa_allocate_exception@PLT
	leaq	.LC59(%rip), %rdx
	movq	%rdx, (%rax)
	movl	$0, %edx
	leaq	_ZTIPKc(%rip), %rsi
	movq	%rax, %rdi
	call	__cxa_throw@PLT
.L229:
	call	_Z10assignmentv
	movq	%rax, -8(%rbp)
	jmp	.L230
.L228:
	call	_Z17first_of_compoundv
	xorl	$1, %eax
	testb	%al, %al
	je	.L231
	movl	$8, %edi
	call	__cxa_allocate_exception@PLT
	leaq	.LC55(%rip), %rdx
	movq	%rdx, (%rax)
	movl	$0, %edx
	leaq	_ZTIPKc(%rip), %rsi
	movq	%rax, %rdi
	call	__cxa_throw@PLT
.L231:
	call	_Z8compoundv
	movq	%rax, -8(%rbp)
	jmp	.L230
.L227:
	call	_Z15first_of_ifstatv
	xorl	$1, %eax
	testb	%al, %al
	je	.L232
	movl	$8, %edi
	call	__cxa_allocate_exception@PLT
	leaq	.LC60(%rip), %rdx
	movq	%rdx, (%rax)
	movl	$0, %edx
	leaq	_ZTIPKc(%rip), %rsi
	movq	%rax, %rdi
	call	__cxa_throw@PLT
.L232:
	call	_Z6ifstatv
	movq	%rax, -8(%rbp)
	jmp	.L230
.L225:
	call	_Z18first_of_whilestatv
	xorl	$1, %eax
	testb	%al, %al
	je	.L233
	movl	$8, %edi
	call	__cxa_allocate_exception@PLT
	leaq	.LC60(%rip), %rdx
	movq	%rdx, (%rax)
	movl	$0, %edx
	leaq	_ZTIPKc(%rip), %rsi
	movq	%rax, %rdi
	call	__cxa_throw@PLT
.L233:
	call	_Z9whilestatv
	movq	%rax, -8(%rbp)
	jmp	.L230
.L226:
	call	_Z13first_of_readv
	xorl	$1, %eax
	testb	%al, %al
	je	.L234
	movl	$8, %edi
	call	__cxa_allocate_exception@PLT
	leaq	.LC60(%rip), %rdx
	movq	%rdx, (%rax)
	movl	$0, %edx
	leaq	_ZTIPKc(%rip), %rsi
	movq	%rax, %rdi
	call	__cxa_throw@PLT
.L234:
	call	_Z4readv
	movq	%rax, -8(%rbp)
	jmp	.L230
.L223:
	call	_Z14first_of_writev
	xorl	$1, %eax
	testb	%al, %al
	je	.L235
	movl	$8, %edi
	call	__cxa_allocate_exception@PLT
	leaq	.LC61(%rip), %rdx
	movq	%rdx, (%rax)
	movl	$0, %edx
	leaq	_ZTIPKc(%rip), %rsi
	movq	%rax, %rdi
	call	__cxa_throw@PLT
.L235:
	call	_Z5writev
	movq	%rax, -8(%rbp)
	jmp	.L230
.L222:
	movl	$8, %edi
	call	__cxa_allocate_exception@PLT
	leaq	.LC62(%rip), %rdx
	movq	%rdx, (%rax)
	movl	$0, %edx
	leaq	_ZTIPKc(%rip), %rsi
	movq	%rax, %rdi
	call	__cxa_throw@PLT
.L230:
	movl	level(%rip), %eax
	subl	$1, %eax
	movl	%eax, level(%rip)
	call	_Z6indentv
	leaq	.LC63(%rip), %rsi
	leaq	_ZSt4cout(%rip), %rdi
	call	_ZStlsISt11char_traitsIcEERSt13basic_ostreamIcT_ES5_PKc@PLT
	movq	%rax, %rdx
	movq	_ZSt4endlIcSt11char_traitsIcEERSt13basic_ostreamIT_T0_ES6_@GOTPCREL(%rip), %rax
	movq	%rax, %rsi
	movq	%rdx, %rdi
	call	_ZNSolsEPFRSoS_E@PLT
	movq	-8(%rbp), %rax
	leave
	.cfi_def_cfa 7, 8
	ret
	.cfi_endproc
.LFE3209:
	.size	_Z9statementv, .-_Z9statementv
	.section	.text._ZN13StatementNodeC2Ev,"axG",@progbits,_ZN13StatementNodeC5Ev,comdat
	.align 2
	.weak	_ZN13StatementNodeC2Ev
	.type	_ZN13StatementNodeC2Ev, @function
_ZN13StatementNodeC2Ev:
.LFB3213:
	.cfi_startproc
	endbr64
	pushq	%rbp
	.cfi_def_cfa_offset 16
	.cfi_offset 6, -16
	movq	%rsp, %rbp
	.cfi_def_cfa_register 6
	movq	%rdi, -8(%rbp)
	leaq	16+_ZTV13StatementNode(%rip), %rdx
	movq	-8(%rbp), %rax
	movq	%rdx, (%rax)
	nop
	popq	%rbp
	.cfi_def_cfa 7, 8
	ret
	.cfi_endproc
.LFE3213:
	.size	_ZN13StatementNodeC2Ev, .-_ZN13StatementNodeC2Ev
	.weak	_ZN13StatementNodeC1Ev
	.set	_ZN13StatementNodeC1Ev,_ZN13StatementNodeC2Ev
	.section	.text._ZNSt12_Vector_baseIiSaIiEE12_Vector_implD2Ev,"axG",@progbits,_ZNSt12_Vector_baseIiSaIiEE12_Vector_implD5Ev,comdat
	.align 2
	.weak	_ZNSt12_Vector_baseIiSaIiEE12_Vector_implD2Ev
	.type	_ZNSt12_Vector_baseIiSaIiEE12_Vector_implD2Ev, @function
_ZNSt12_Vector_baseIiSaIiEE12_Vector_implD2Ev:
.LFB3218:
	.cfi_startproc
	endbr64
	pushq	%rbp
	.cfi_def_cfa_offset 16
	.cfi_offset 6, -16
	movq	%rsp, %rbp
	.cfi_def_cfa_register 6
	subq	$16, %rsp
	movq	%rdi, -8(%rbp)
	movq	-8(%rbp), %rax
	movq	%rax, %rdi
	call	_ZNSaIiED2Ev
	nop
	leave
	.cfi_def_cfa 7, 8
	ret
	.cfi_endproc
.LFE3218:
	.size	_ZNSt12_Vector_baseIiSaIiEE12_Vector_implD2Ev, .-_ZNSt12_Vector_baseIiSaIiEE12_Vector_implD2Ev
	.weak	_ZNSt12_Vector_baseIiSaIiEE12_Vector_implD1Ev
	.set	_ZNSt12_Vector_baseIiSaIiEE12_Vector_implD1Ev,_ZNSt12_Vector_baseIiSaIiEE12_Vector_implD2Ev
	.section	.text._ZNSt12_Vector_baseIiSaIiEEC2Ev,"axG",@progbits,_ZNSt12_Vector_baseIiSaIiEEC5Ev,comdat
	.align 2
	.weak	_ZNSt12_Vector_baseIiSaIiEEC2Ev
	.type	_ZNSt12_Vector_baseIiSaIiEEC2Ev, @function
_ZNSt12_Vector_baseIiSaIiEEC2Ev:
.LFB3220:
	.cfi_startproc
	endbr64
	pushq	%rbp
	.cfi_def_cfa_offset 16
	.cfi_offset 6, -16
	movq	%rsp, %rbp
	.cfi_def_cfa_register 6
	subq	$16, %rsp
	movq	%rdi, -8(%rbp)
	movq	-8(%rbp), %rax
	movq	%rax, %rdi
	call	_ZNSt12_Vector_baseIiSaIiEE12_Vector_implC1Ev
	nop
	leave
	.cfi_def_cfa 7, 8
	ret
	.cfi_endproc
.LFE3220:
	.size	_ZNSt12_Vector_baseIiSaIiEEC2Ev, .-_ZNSt12_Vector_baseIiSaIiEEC2Ev
	.weak	_ZNSt12_Vector_baseIiSaIiEEC1Ev
	.set	_ZNSt12_Vector_baseIiSaIiEEC1Ev,_ZNSt12_Vector_baseIiSaIiEEC2Ev
	.section	.text._ZNSt6vectorIiSaIiEEC2Ev,"axG",@progbits,_ZNSt6vectorIiSaIiEEC5Ev,comdat
	.align 2
	.weak	_ZNSt6vectorIiSaIiEEC2Ev
	.type	_ZNSt6vectorIiSaIiEEC2Ev, @function
_ZNSt6vectorIiSaIiEEC2Ev:
.LFB3222:
	.cfi_startproc
	endbr64
	pushq	%rbp
	.cfi_def_cfa_offset 16
	.cfi_offset 6, -16
	movq	%rsp, %rbp
	.cfi_def_cfa_register 6
	subq	$16, %rsp
	movq	%rdi, -8(%rbp)
	movq	-8(%rbp), %rax
	movq	%rax, %rdi
	call	_ZNSt12_Vector_baseIiSaIiEEC2Ev
	nop
	leave
	.cfi_def_cfa 7, 8
	ret
	.cfi_endproc
.LFE3222:
	.size	_ZNSt6vectorIiSaIiEEC2Ev, .-_ZNSt6vectorIiSaIiEEC2Ev
	.weak	_ZNSt6vectorIiSaIiEEC1Ev
	.set	_ZNSt6vectorIiSaIiEEC1Ev,_ZNSt6vectorIiSaIiEEC2Ev
	.section	.text._ZN14AssignmentNodeC2Ev,"axG",@progbits,_ZN14AssignmentNodeC5Ev,comdat
	.align 2
	.weak	_ZN14AssignmentNodeC2Ev
	.type	_ZN14AssignmentNodeC2Ev, @function
_ZN14AssignmentNodeC2Ev:
.LFB3224:
	.cfi_startproc
	endbr64
	pushq	%rbp
	.cfi_def_cfa_offset 16
	.cfi_offset 6, -16
	movq	%rsp, %rbp
	.cfi_def_cfa_register 6
	subq	$16, %rsp
	movq	%rdi, -8(%rbp)
	movq	-8(%rbp), %rax
	movq	%rax, %rdi
	call	_ZN13StatementNodeC2Ev
	leaq	16+_ZTV14AssignmentNode(%rip), %rdx
	movq	-8(%rbp), %rax
	movq	%rdx, (%rax)
	movq	-8(%rbp), %rax
	movq	$0, 8(%rax)
	movq	-8(%rbp), %rax
	movq	$0, 16(%rax)
	movq	-8(%rbp), %rax
	addq	$24, %rax
	movq	%rax, %rdi
	call	_ZNSt6vectorIiSaIiEEC1Ev
	nop
	leave
	.cfi_def_cfa 7, 8
	ret
	.cfi_endproc
.LFE3224:
	.size	_ZN14AssignmentNodeC2Ev, .-_ZN14AssignmentNodeC2Ev
	.weak	_ZN14AssignmentNodeC1Ev
	.set	_ZN14AssignmentNodeC1Ev,_ZN14AssignmentNodeC2Ev
	.section	.rodata
.LC64:
	.string	"enter <assignment>"
.LC65:
	.string	"104: identifier not declared"
.LC66:
	.string	"exit <assignment>"
	.text
	.globl	_Z10assignmentv
	.type	_Z10assignmentv, @function
_Z10assignmentv:
.LFB3210:
	.cfi_startproc
	.cfi_personality 0x9b,DW.ref.__gxx_personality_v0
	.cfi_lsda 0x1b,.LLSDA3210
	endbr64
	pushq	%rbp
	.cfi_def_cfa_offset 16
	.cfi_offset 6, -16
	movq	%rsp, %rbp
	.cfi_def_cfa_register 6
	pushq	%r12
	pushq	%rbx
	subq	$64, %rsp
	.cfi_offset 12, -24
	.cfi_offset 3, -32
	movq	%fs:40, %rax
	movq	%rax, -24(%rbp)
	xorl	%eax, %eax
	call	_Z19first_of_assignmentv
	xorl	$1, %eax
	testb	%al, %al
	je	.L243
	movl	$8, %edi
	call	__cxa_allocate_exception@PLT
	leaq	.LC60(%rip), %rdx
	movq	%rdx, (%rax)
	movl	$0, %edx
	leaq	_ZTIPKc(%rip), %rsi
	movq	%rax, %rdi
.LEHB22:
	call	__cxa_throw@PLT
.L243:
	call	_Z6indentv
	leaq	.LC64(%rip), %rsi
	leaq	_ZSt4cout(%rip), %rdi
	call	_ZStlsISt11char_traitsIcEERSt13basic_ostreamIcT_ES5_PKc@PLT
	movq	%rax, %rdx
	movq	_ZSt4endlIcSt11char_traitsIcEERSt13basic_ostreamIT_T0_ES6_@GOTPCREL(%rip), %rax
	movq	%rax, %rsi
	movq	%rdx, %rdi
	call	_ZNSolsEPFRSoS_E@PLT
	movl	level(%rip), %eax
	addl	$1, %eax
	movl	%eax, level(%rip)
	movl	$48, %edi
	call	_Znwm@PLT
.LEHE22:
	movq	%rax, %rbx
	movq	%rbx, %rdi
	call	_ZN14AssignmentNodeC1Ev
	movq	%rbx, -72(%rbp)
	movl	nextToken(%rip), %eax
	cmpl	$4000, %eax
	jne	.L244
	leaq	-73(%rbp), %rax
	movq	%rax, %rdi
	call	_ZNSaIcEC1Ev@PLT
	movq	yytext(%rip), %rcx
	leaq	-73(%rbp), %rdx
	leaq	-64(%rbp), %rax
	movq	%rcx, %rsi
	movq	%rax, %rdi
.LEHB23:
	call	_ZNSt7__cxx1112basic_stringIcSt11char_traitsIcESaIcEEC1EPKcRKS3_@PLT
.LEHE23:
	leaq	-64(%rbp), %rax
	movq	%rax, %rsi
	leaq	_Z11symbolTableB5cxx11(%rip), %rdi
.LEHB24:
	call	_ZNKSt3setINSt7__cxx1112basic_stringIcSt11char_traitsIcESaIcEEESt4lessIS5_ESaIS5_EE5countERKS5_
.LEHE24:
	testq	%rax, %rax
	sete	%bl
	leaq	-64(%rbp), %rax
	movq	%rax, %rdi
	call	_ZNSt7__cxx1112basic_stringIcSt11char_traitsIcESaIcEED1Ev@PLT
	leaq	-73(%rbp), %rax
	movq	%rax, %rdi
	call	_ZNSaIcED1Ev@PLT
	testb	%bl, %bl
	je	.L245
	movl	$8, %edi
	call	__cxa_allocate_exception@PLT
	leaq	.LC65(%rip), %rdx
	movq	%rdx, (%rax)
	movl	$0, %edx
	leaq	_ZTIPKc(%rip), %rsi
	movq	%rax, %rdi
.LEHB25:
	call	__cxa_throw@PLT
.L245:
	call	_Z6indentv
	leaq	.LC47(%rip), %rsi
	leaq	_ZSt4cout(%rip), %rdi
	call	_ZStlsISt11char_traitsIcEERSt13basic_ostreamIcT_ES5_PKc@PLT
	movq	%rax, %rdx
	movq	yytext(%rip), %rax
	movq	%rax, %rsi
	movq	%rdx, %rdi
	call	_ZStlsISt11char_traitsIcEERSt13basic_ostreamIcT_ES5_PKc@PLT
	movq	%rax, %rdx
	movq	_ZSt4endlIcSt11char_traitsIcEERSt13basic_ostreamIT_T0_ES6_@GOTPCREL(%rip), %rax
	movq	%rax, %rsi
	movq	%rdx, %rdi
	call	_ZNSolsEPFRSoS_E@PLT
.LEHE25:
	leaq	-73(%rbp), %rax
	movq	%rax, %rdi
	call	_ZNSaIcEC1Ev@PLT
	leaq	-73(%rbp), %r12
	movl	$32, %edi
.LEHB26:
	call	_Znwm@PLT
.LEHE26:
	movq	%rax, %rbx
	movq	yytext(%rip), %rax
	movq	%r12, %rdx
	movq	%rax, %rsi
	movq	%rbx, %rdi
.LEHB27:
	call	_ZNSt7__cxx1112basic_stringIcSt11char_traitsIcESaIcEEC1EPKcRKS3_@PLT
.LEHE27:
	movq	-72(%rbp), %rax
	movq	%rbx, 16(%rax)
	leaq	-73(%rbp), %rax
	movq	%rax, %rdi
	call	_ZNSaIcED1Ev@PLT
.LEHB28:
	call	yylex@PLT
	movl	%eax, nextToken(%rip)
	movl	nextToken(%rip), %eax
	cmpl	$3004, %eax
	jne	.L244
	call	_Z6indentv
	leaq	.LC47(%rip), %rsi
	leaq	_ZSt4cout(%rip), %rdi
	call	_ZStlsISt11char_traitsIcEERSt13basic_ostreamIcT_ES5_PKc@PLT
	movq	%rax, %rdx
	movq	yytext(%rip), %rax
	movq	%rax, %rsi
	movq	%rdx, %rdi
	call	_ZStlsISt11char_traitsIcEERSt13basic_ostreamIcT_ES5_PKc@PLT
	movq	%rax, %rdx
	movq	_ZSt4endlIcSt11char_traitsIcEERSt13basic_ostreamIT_T0_ES6_@GOTPCREL(%rip), %rax
	movq	%rax, %rsi
	movq	%rdx, %rdi
	call	_ZNSolsEPFRSoS_E@PLT
	call	yylex@PLT
	movl	%eax, nextToken(%rip)
.L244:
	call	_Z19first_of_expressionv
	testb	%al, %al
	je	.L246
	call	_Z10expressionv
	movq	-72(%rbp), %rdx
	movq	%rax, 8(%rdx)
	movl	level(%rip), %eax
	subl	$1, %eax
	movl	%eax, level(%rip)
	call	_Z6indentv
	leaq	.LC66(%rip), %rsi
	leaq	_ZSt4cout(%rip), %rdi
	call	_ZStlsISt11char_traitsIcEERSt13basic_ostreamIcT_ES5_PKc@PLT
	movq	%rax, %rdx
	movq	_ZSt4endlIcSt11char_traitsIcEERSt13basic_ostreamIT_T0_ES6_@GOTPCREL(%rip), %rax
	movq	%rax, %rsi
	movq	%rdx, %rdi
	call	_ZNSolsEPFRSoS_E@PLT
	movq	-72(%rbp), %rax
	movq	-24(%rbp), %rcx
	xorq	%fs:40, %rcx
	je	.L253
	jmp	.L258
.L246:
	movl	$8, %edi
	call	__cxa_allocate_exception@PLT
	leaq	.LC59(%rip), %rdx
	movq	%rdx, (%rax)
	movl	$0, %edx
	leaq	_ZTIPKc(%rip), %rsi
	movq	%rax, %rdi
	call	__cxa_throw@PLT
.L255:
	endbr64
	movq	%rax, %rbx
	leaq	-64(%rbp), %rax
	movq	%rax, %rdi
	call	_ZNSt7__cxx1112basic_stringIcSt11char_traitsIcESaIcEED1Ev@PLT
	jmp	.L250
.L254:
	endbr64
	movq	%rax, %rbx
.L250:
	leaq	-73(%rbp), %rax
	movq	%rax, %rdi
	call	_ZNSaIcED1Ev@PLT
	movq	%rbx, %rax
	movq	%rax, %rdi
	call	_Unwind_Resume@PLT
.L257:
	endbr64
	movq	%rax, %r12
	movl	$32, %esi
	movq	%rbx, %rdi
	call	_ZdlPvm@PLT
	movq	%r12, %rbx
	jmp	.L252
.L256:
	endbr64
	movq	%rax, %rbx
.L252:
	leaq	-73(%rbp), %rax
	movq	%rax, %rdi
	call	_ZNSaIcED1Ev@PLT
	movq	%rbx, %rax
	movq	%rax, %rdi
	call	_Unwind_Resume@PLT
.LEHE28:
.L258:
	call	__stack_chk_fail@PLT
.L253:
	addq	$64, %rsp
	popq	%rbx
	popq	%r12
	popq	%rbp
	.cfi_def_cfa 7, 8
	ret
	.cfi_endproc
.LFE3210:
	.section	.gcc_except_table
.LLSDA3210:
	.byte	0xff
	.byte	0xff
	.byte	0x1
	.uleb128 .LLSDACSE3210-.LLSDACSB3210
.LLSDACSB3210:
	.uleb128 .LEHB22-.LFB3210
	.uleb128 .LEHE22-.LEHB22
	.uleb128 0
	.uleb128 0
	.uleb128 .LEHB23-.LFB3210
	.uleb128 .LEHE23-.LEHB23
	.uleb128 .L254-.LFB3210
	.uleb128 0
	.uleb128 .LEHB24-.LFB3210
	.uleb128 .LEHE24-.LEHB24
	.uleb128 .L255-.LFB3210
	.uleb128 0
	.uleb128 .LEHB25-.LFB3210
	.uleb128 .LEHE25-.LEHB25
	.uleb128 0
	.uleb128 0
	.uleb128 .LEHB26-.LFB3210
	.uleb128 .LEHE26-.LEHB26
	.uleb128 .L256-.LFB3210
	.uleb128 0
	.uleb128 .LEHB27-.LFB3210
	.uleb128 .LEHE27-.LEHB27
	.uleb128 .L257-.LFB3210
	.uleb128 0
	.uleb128 .LEHB28-.LFB3210
	.uleb128 .LEHE28-.LEHB28
	.uleb128 0
	.uleb128 0
.LLSDACSE3210:
	.text
	.size	_Z10assignmentv, .-_Z10assignmentv
	.section	.text._ZNSt12_Vector_baseIP13StatementNodeSaIS1_EE12_Vector_implD2Ev,"axG",@progbits,_ZNSt12_Vector_baseIP13StatementNodeSaIS1_EE12_Vector_implD5Ev,comdat
	.align 2
	.weak	_ZNSt12_Vector_baseIP13StatementNodeSaIS1_EE12_Vector_implD2Ev
	.type	_ZNSt12_Vector_baseIP13StatementNodeSaIS1_EE12_Vector_implD2Ev, @function
_ZNSt12_Vector_baseIP13StatementNodeSaIS1_EE12_Vector_implD2Ev:
.LFB3231:
	.cfi_startproc
	endbr64
	pushq	%rbp
	.cfi_def_cfa_offset 16
	.cfi_offset 6, -16
	movq	%rsp, %rbp
	.cfi_def_cfa_register 6
	subq	$16, %rsp
	movq	%rdi, -8(%rbp)
	movq	-8(%rbp), %rax
	movq	%rax, %rdi
	call	_ZNSaIP13StatementNodeED2Ev
	nop
	leave
	.cfi_def_cfa 7, 8
	ret
	.cfi_endproc
.LFE3231:
	.size	_ZNSt12_Vector_baseIP13StatementNodeSaIS1_EE12_Vector_implD2Ev, .-_ZNSt12_Vector_baseIP13StatementNodeSaIS1_EE12_Vector_implD2Ev
	.weak	_ZNSt12_Vector_baseIP13StatementNodeSaIS1_EE12_Vector_implD1Ev
	.set	_ZNSt12_Vector_baseIP13StatementNodeSaIS1_EE12_Vector_implD1Ev,_ZNSt12_Vector_baseIP13StatementNodeSaIS1_EE12_Vector_implD2Ev
	.section	.text._ZNSt12_Vector_baseIP13StatementNodeSaIS1_EEC2Ev,"axG",@progbits,_ZNSt12_Vector_baseIP13StatementNodeSaIS1_EEC5Ev,comdat
	.align 2
	.weak	_ZNSt12_Vector_baseIP13StatementNodeSaIS1_EEC2Ev
	.type	_ZNSt12_Vector_baseIP13StatementNodeSaIS1_EEC2Ev, @function
_ZNSt12_Vector_baseIP13StatementNodeSaIS1_EEC2Ev:
.LFB3233:
	.cfi_startproc
	endbr64
	pushq	%rbp
	.cfi_def_cfa_offset 16
	.cfi_offset 6, -16
	movq	%rsp, %rbp
	.cfi_def_cfa_register 6
	subq	$16, %rsp
	movq	%rdi, -8(%rbp)
	movq	-8(%rbp), %rax
	movq	%rax, %rdi
	call	_ZNSt12_Vector_baseIP13StatementNodeSaIS1_EE12_Vector_implC1Ev
	nop
	leave
	.cfi_def_cfa 7, 8
	ret
	.cfi_endproc
.LFE3233:
	.size	_ZNSt12_Vector_baseIP13StatementNodeSaIS1_EEC2Ev, .-_ZNSt12_Vector_baseIP13StatementNodeSaIS1_EEC2Ev
	.weak	_ZNSt12_Vector_baseIP13StatementNodeSaIS1_EEC1Ev
	.set	_ZNSt12_Vector_baseIP13StatementNodeSaIS1_EEC1Ev,_ZNSt12_Vector_baseIP13StatementNodeSaIS1_EEC2Ev
	.section	.text._ZNSt6vectorIP13StatementNodeSaIS1_EEC2Ev,"axG",@progbits,_ZNSt6vectorIP13StatementNodeSaIS1_EEC5Ev,comdat
	.align 2
	.weak	_ZNSt6vectorIP13StatementNodeSaIS1_EEC2Ev
	.type	_ZNSt6vectorIP13StatementNodeSaIS1_EEC2Ev, @function
_ZNSt6vectorIP13StatementNodeSaIS1_EEC2Ev:
.LFB3235:
	.cfi_startproc
	endbr64
	pushq	%rbp
	.cfi_def_cfa_offset 16
	.cfi_offset 6, -16
	movq	%rsp, %rbp
	.cfi_def_cfa_register 6
	subq	$16, %rsp
	movq	%rdi, -8(%rbp)
	movq	-8(%rbp), %rax
	movq	%rax, %rdi
	call	_ZNSt12_Vector_baseIP13StatementNodeSaIS1_EEC2Ev
	nop
	leave
	.cfi_def_cfa 7, 8
	ret
	.cfi_endproc
.LFE3235:
	.size	_ZNSt6vectorIP13StatementNodeSaIS1_EEC2Ev, .-_ZNSt6vectorIP13StatementNodeSaIS1_EEC2Ev
	.weak	_ZNSt6vectorIP13StatementNodeSaIS1_EEC1Ev
	.set	_ZNSt6vectorIP13StatementNodeSaIS1_EEC1Ev,_ZNSt6vectorIP13StatementNodeSaIS1_EEC2Ev
	.section	.text._ZN12CompoundNodeC2Ev,"axG",@progbits,_ZN12CompoundNodeC5Ev,comdat
	.align 2
	.weak	_ZN12CompoundNodeC2Ev
	.type	_ZN12CompoundNodeC2Ev, @function
_ZN12CompoundNodeC2Ev:
.LFB3237:
	.cfi_startproc
	endbr64
	pushq	%rbp
	.cfi_def_cfa_offset 16
	.cfi_offset 6, -16
	movq	%rsp, %rbp
	.cfi_def_cfa_register 6
	subq	$16, %rsp
	movq	%rdi, -8(%rbp)
	movq	-8(%rbp), %rax
	movq	%rax, %rdi
	call	_ZN13StatementNodeC2Ev
	leaq	16+_ZTV12CompoundNode(%rip), %rdx
	movq	-8(%rbp), %rax
	movq	%rdx, (%rax)
	movq	-8(%rbp), %rax
	movq	$0, 8(%rax)
	movq	-8(%rbp), %rax
	addq	$16, %rax
	movq	%rax, %rdi
	call	_ZNSt6vectorIP13StatementNodeSaIS1_EEC1Ev
	nop
	leave
	.cfi_def_cfa 7, 8
	ret
	.cfi_endproc
.LFE3237:
	.size	_ZN12CompoundNodeC2Ev, .-_ZN12CompoundNodeC2Ev
	.weak	_ZN12CompoundNodeC1Ev
	.set	_ZN12CompoundNodeC1Ev,_ZN12CompoundNodeC2Ev
	.section	.rodata
.LC67:
	.string	"enter <compound_statement>"
.LC68:
	.string	"14: ';' expected"
.LC69:
	.string	"13: 'END' expected"
.LC70:
	.string	"exit <compound_statement>"
	.text
	.globl	_Z8compoundv
	.type	_Z8compoundv, @function
_Z8compoundv:
.LFB3226:
	.cfi_startproc
	endbr64
	pushq	%rbp
	.cfi_def_cfa_offset 16
	.cfi_offset 6, -16
	movq	%rsp, %rbp
	.cfi_def_cfa_register 6
	pushq	%rbx
	subq	$40, %rsp
	.cfi_offset 3, -24
	movq	%fs:40, %rax
	movq	%rax, -24(%rbp)
	xorl	%eax, %eax
	call	_Z17first_of_compoundv
	xorl	$1, %eax
	testb	%al, %al
	je	.L264
	movl	$8, %edi
	call	__cxa_allocate_exception@PLT
	leaq	.LC60(%rip), %rdx
	movq	%rdx, (%rax)
	movl	$0, %edx
	leaq	_ZTIPKc(%rip), %rsi
	movq	%rax, %rdi
	call	__cxa_throw@PLT
.L264:
	movl	$40, %edi
	call	_Znwm@PLT
	movq	%rax, %rbx
	movq	%rbx, %rdi
	call	_ZN12CompoundNodeC1Ev
	movq	%rbx, -32(%rbp)
	call	_Z6indentv
	leaq	.LC67(%rip), %rsi
	leaq	_ZSt4cout(%rip), %rdi
	call	_ZStlsISt11char_traitsIcEERSt13basic_ostreamIcT_ES5_PKc@PLT
	movq	%rax, %rdx
	movq	_ZSt4endlIcSt11char_traitsIcEERSt13basic_ostreamIT_T0_ES6_@GOTPCREL(%rip), %rax
	movq	%rax, %rsi
	movq	%rdx, %rdi
	call	_ZNSolsEPFRSoS_E@PLT
	movl	level(%rip), %eax
	addl	$1, %eax
	movl	%eax, level(%rip)
.L273:
	movl	nextToken(%rip), %eax
	cmpl	$1000, %eax
	je	.L265
	movl	nextToken(%rip), %eax
	cmpl	$2000, %eax
	je	.L265
	movl	nextToken(%rip), %eax
	cmpl	$1005, %eax
	jne	.L266
.L265:
	movl	nextToken(%rip), %eax
	cmpl	$1000, %eax
	jne	.L267
	call	_Z6indentv
	leaq	.LC47(%rip), %rsi
	leaq	_ZSt4cout(%rip), %rdi
	call	_ZStlsISt11char_traitsIcEERSt13basic_ostreamIcT_ES5_PKc@PLT
	movq	%rax, %rdx
	movq	yytext(%rip), %rax
	movq	%rax, %rsi
	movq	%rdx, %rdi
	call	_ZStlsISt11char_traitsIcEERSt13basic_ostreamIcT_ES5_PKc@PLT
	movq	%rax, %rdx
	movq	_ZSt4endlIcSt11char_traitsIcEERSt13basic_ostreamIT_T0_ES6_@GOTPCREL(%rip), %rax
	movq	%rax, %rsi
	movq	%rdx, %rdi
	call	_ZNSolsEPFRSoS_E@PLT
	call	yylex@PLT
	movl	%eax, nextToken(%rip)
	call	_Z18first_of_statementv
	testb	%al, %al
	je	.L268
	call	_Z9statementv
	movq	-32(%rbp), %rdx
	movq	%rax, 8(%rdx)
	jmp	.L273
.L268:
	movl	$8, %edi
	call	__cxa_allocate_exception@PLT
	leaq	.LC55(%rip), %rdx
	movq	%rdx, (%rax)
	movl	$0, %edx
	leaq	_ZTIPKc(%rip), %rsi
	movq	%rax, %rdi
	call	__cxa_throw@PLT
.L267:
	movl	nextToken(%rip), %eax
	cmpl	$2000, %eax
	jne	.L270
	call	_Z6indentv
	leaq	.LC47(%rip), %rsi
	leaq	_ZSt4cout(%rip), %rdi
	call	_ZStlsISt11char_traitsIcEERSt13basic_ostreamIcT_ES5_PKc@PLT
	movq	%rax, %rdx
	movq	yytext(%rip), %rax
	movq	%rax, %rsi
	movq	%rdx, %rdi
	call	_ZStlsISt11char_traitsIcEERSt13basic_ostreamIcT_ES5_PKc@PLT
	movq	%rax, %rdx
	movq	_ZSt4endlIcSt11char_traitsIcEERSt13basic_ostreamIT_T0_ES6_@GOTPCREL(%rip), %rax
	movq	%rax, %rsi
	movq	%rdx, %rdi
	call	_ZNSolsEPFRSoS_E@PLT
	call	yylex@PLT
	movl	%eax, nextToken(%rip)
	call	_Z18first_of_statementv
	testb	%al, %al
	je	.L271
	movq	-32(%rbp), %rax
	leaq	16(%rax), %rbx
	call	_Z9statementv
	movq	%rax, -40(%rbp)
	leaq	-40(%rbp), %rax
	movq	%rax, %rsi
	movq	%rbx, %rdi
	call	_ZNSt6vectorIP13StatementNodeSaIS1_EE9push_backEOS1_
	jmp	.L273
.L271:
	movl	$8, %edi
	call	__cxa_allocate_exception@PLT
	leaq	.LC68(%rip), %rdx
	movq	%rdx, (%rax)
	movl	$0, %edx
	leaq	_ZTIPKc(%rip), %rsi
	movq	%rax, %rdi
	call	__cxa_throw@PLT
.L270:
	call	_Z6indentv
	movl	nextToken(%rip), %eax
	cmpl	$1005, %eax
	jne	.L272
	leaq	.LC47(%rip), %rsi
	leaq	_ZSt4cout(%rip), %rdi
	call	_ZStlsISt11char_traitsIcEERSt13basic_ostreamIcT_ES5_PKc@PLT
	movq	%rax, %rdx
	movq	yytext(%rip), %rax
	movq	%rax, %rsi
	movq	%rdx, %rdi
	call	_ZStlsISt11char_traitsIcEERSt13basic_ostreamIcT_ES5_PKc@PLT
	movq	%rax, %rdx
	movq	_ZSt4endlIcSt11char_traitsIcEERSt13basic_ostreamIT_T0_ES6_@GOTPCREL(%rip), %rax
	movq	%rax, %rsi
	movq	%rdx, %rdi
	call	_ZNSolsEPFRSoS_E@PLT
	call	yylex@PLT
	movl	%eax, nextToken(%rip)
	jmp	.L266
.L272:
	movl	$8, %edi
	call	__cxa_allocate_exception@PLT
	leaq	.LC69(%rip), %rdx
	movq	%rdx, (%rax)
	movl	$0, %edx
	leaq	_ZTIPKc(%rip), %rsi
	movq	%rax, %rdi
	call	__cxa_throw@PLT
.L266:
	movl	level(%rip), %eax
	subl	$1, %eax
	movl	%eax, level(%rip)
	call	_Z6indentv
	leaq	.LC70(%rip), %rsi
	leaq	_ZSt4cout(%rip), %rdi
	call	_ZStlsISt11char_traitsIcEERSt13basic_ostreamIcT_ES5_PKc@PLT
	movq	%rax, %rdx
	movq	_ZSt4endlIcSt11char_traitsIcEERSt13basic_ostreamIT_T0_ES6_@GOTPCREL(%rip), %rax
	movq	%rax, %rsi
	movq	%rdx, %rdi
	call	_ZNSolsEPFRSoS_E@PLT
	movq	-32(%rbp), %rax
	movq	-24(%rbp), %rcx
	xorq	%fs:40, %rcx
	je	.L275
	call	__stack_chk_fail@PLT
.L275:
	addq	$40, %rsp
	popq	%rbx
	popq	%rbp
	.cfi_def_cfa 7, 8
	ret
	.cfi_endproc
.LFE3226:
	.size	_Z8compoundv, .-_Z8compoundv
	.section	.text._ZNSt12_Vector_baseIP14SimpleExprNodeSaIS1_EE12_Vector_implD2Ev,"axG",@progbits,_ZNSt12_Vector_baseIP14SimpleExprNodeSaIS1_EE12_Vector_implD5Ev,comdat
	.align 2
	.weak	_ZNSt12_Vector_baseIP14SimpleExprNodeSaIS1_EE12_Vector_implD2Ev
	.type	_ZNSt12_Vector_baseIP14SimpleExprNodeSaIS1_EE12_Vector_implD2Ev, @function
_ZNSt12_Vector_baseIP14SimpleExprNodeSaIS1_EE12_Vector_implD2Ev:
.LFB3244:
	.cfi_startproc
	endbr64
	pushq	%rbp
	.cfi_def_cfa_offset 16
	.cfi_offset 6, -16
	movq	%rsp, %rbp
	.cfi_def_cfa_register 6
	subq	$16, %rsp
	movq	%rdi, -8(%rbp)
	movq	-8(%rbp), %rax
	movq	%rax, %rdi
	call	_ZNSaIP14SimpleExprNodeED2Ev
	nop
	leave
	.cfi_def_cfa 7, 8
	ret
	.cfi_endproc
.LFE3244:
	.size	_ZNSt12_Vector_baseIP14SimpleExprNodeSaIS1_EE12_Vector_implD2Ev, .-_ZNSt12_Vector_baseIP14SimpleExprNodeSaIS1_EE12_Vector_implD2Ev
	.weak	_ZNSt12_Vector_baseIP14SimpleExprNodeSaIS1_EE12_Vector_implD1Ev
	.set	_ZNSt12_Vector_baseIP14SimpleExprNodeSaIS1_EE12_Vector_implD1Ev,_ZNSt12_Vector_baseIP14SimpleExprNodeSaIS1_EE12_Vector_implD2Ev
	.section	.text._ZNSt12_Vector_baseIP14SimpleExprNodeSaIS1_EEC2Ev,"axG",@progbits,_ZNSt12_Vector_baseIP14SimpleExprNodeSaIS1_EEC5Ev,comdat
	.align 2
	.weak	_ZNSt12_Vector_baseIP14SimpleExprNodeSaIS1_EEC2Ev
	.type	_ZNSt12_Vector_baseIP14SimpleExprNodeSaIS1_EEC2Ev, @function
_ZNSt12_Vector_baseIP14SimpleExprNodeSaIS1_EEC2Ev:
.LFB3246:
	.cfi_startproc
	endbr64
	pushq	%rbp
	.cfi_def_cfa_offset 16
	.cfi_offset 6, -16
	movq	%rsp, %rbp
	.cfi_def_cfa_register 6
	subq	$16, %rsp
	movq	%rdi, -8(%rbp)
	movq	-8(%rbp), %rax
	movq	%rax, %rdi
	call	_ZNSt12_Vector_baseIP14SimpleExprNodeSaIS1_EE12_Vector_implC1Ev
	nop
	leave
	.cfi_def_cfa 7, 8
	ret
	.cfi_endproc
.LFE3246:
	.size	_ZNSt12_Vector_baseIP14SimpleExprNodeSaIS1_EEC2Ev, .-_ZNSt12_Vector_baseIP14SimpleExprNodeSaIS1_EEC2Ev
	.weak	_ZNSt12_Vector_baseIP14SimpleExprNodeSaIS1_EEC1Ev
	.set	_ZNSt12_Vector_baseIP14SimpleExprNodeSaIS1_EEC1Ev,_ZNSt12_Vector_baseIP14SimpleExprNodeSaIS1_EEC2Ev
	.section	.text._ZNSt6vectorIP14SimpleExprNodeSaIS1_EEC2Ev,"axG",@progbits,_ZNSt6vectorIP14SimpleExprNodeSaIS1_EEC5Ev,comdat
	.align 2
	.weak	_ZNSt6vectorIP14SimpleExprNodeSaIS1_EEC2Ev
	.type	_ZNSt6vectorIP14SimpleExprNodeSaIS1_EEC2Ev, @function
_ZNSt6vectorIP14SimpleExprNodeSaIS1_EEC2Ev:
.LFB3248:
	.cfi_startproc
	endbr64
	pushq	%rbp
	.cfi_def_cfa_offset 16
	.cfi_offset 6, -16
	movq	%rsp, %rbp
	.cfi_def_cfa_register 6
	subq	$16, %rsp
	movq	%rdi, -8(%rbp)
	movq	-8(%rbp), %rax
	movq	%rax, %rdi
	call	_ZNSt12_Vector_baseIP14SimpleExprNodeSaIS1_EEC2Ev
	nop
	leave
	.cfi_def_cfa 7, 8
	ret
	.cfi_endproc
.LFE3248:
	.size	_ZNSt6vectorIP14SimpleExprNodeSaIS1_EEC2Ev, .-_ZNSt6vectorIP14SimpleExprNodeSaIS1_EEC2Ev
	.weak	_ZNSt6vectorIP14SimpleExprNodeSaIS1_EEC1Ev
	.set	_ZNSt6vectorIP14SimpleExprNodeSaIS1_EEC1Ev,_ZNSt6vectorIP14SimpleExprNodeSaIS1_EEC2Ev
	.section	.text._ZN8ExprNodeC2Ev,"axG",@progbits,_ZN8ExprNodeC5Ev,comdat
	.align 2
	.weak	_ZN8ExprNodeC2Ev
	.type	_ZN8ExprNodeC2Ev, @function
_ZN8ExprNodeC2Ev:
.LFB3250:
	.cfi_startproc
	endbr64
	pushq	%rbp
	.cfi_def_cfa_offset 16
	.cfi_offset 6, -16
	movq	%rsp, %rbp
	.cfi_def_cfa_register 6
	subq	$16, %rsp
	movq	%rdi, -8(%rbp)
	movq	-8(%rbp), %rax
	movq	$0, (%rax)
	movq	-8(%rbp), %rax
	addq	$8, %rax
	movq	%rax, %rdi
	call	_ZNSt6vectorIiSaIiEEC1Ev
	movq	-8(%rbp), %rax
	addq	$32, %rax
	movq	%rax, %rdi
	call	_ZNSt6vectorIP14SimpleExprNodeSaIS1_EEC1Ev
	nop
	leave
	.cfi_def_cfa 7, 8
	ret
	.cfi_endproc
.LFE3250:
	.size	_ZN8ExprNodeC2Ev, .-_ZN8ExprNodeC2Ev
	.weak	_ZN8ExprNodeC1Ev
	.set	_ZN8ExprNodeC1Ev,_ZN8ExprNodeC2Ev
	.section	.rodata
	.align 8
.LC71:
	.string	"144: illegal type of expression"
.LC72:
	.string	"enter <expression>"
	.align 8
.LC73:
	.string	"901: illegal type of simple expression"
.LC74:
	.string	"exit <expression>"
	.text
	.globl	_Z10expressionv
	.type	_Z10expressionv, @function
_Z10expressionv:
.LFB3239:
	.cfi_startproc
	endbr64
	pushq	%rbp
	.cfi_def_cfa_offset 16
	.cfi_offset 6, -16
	movq	%rsp, %rbp
	.cfi_def_cfa_register 6
	pushq	%rbx
	subq	$40, %rsp
	.cfi_offset 3, -24
	movq	%fs:40, %rax
	movq	%rax, -24(%rbp)
	xorl	%eax, %eax
	call	_Z19first_of_expressionv
	xorl	$1, %eax
	testb	%al, %al
	je	.L281
	movl	$8, %edi
	call	__cxa_allocate_exception@PLT
	leaq	.LC71(%rip), %rdx
	movq	%rdx, (%rax)
	movl	$0, %edx
	leaq	_ZTIPKc(%rip), %rsi
	movq	%rax, %rdi
	call	__cxa_throw@PLT
.L281:
	call	_Z6indentv
	leaq	.LC72(%rip), %rsi
	leaq	_ZSt4cout(%rip), %rdi
	call	_ZStlsISt11char_traitsIcEERSt13basic_ostreamIcT_ES5_PKc@PLT
	movq	%rax, %rdx
	movq	_ZSt4endlIcSt11char_traitsIcEERSt13basic_ostreamIT_T0_ES6_@GOTPCREL(%rip), %rax
	movq	%rax, %rsi
	movq	%rdx, %rdi
	call	_ZNSolsEPFRSoS_E@PLT
	movl	level(%rip), %eax
	addl	$1, %eax
	movl	%eax, level(%rip)
	movl	$56, %edi
	call	_Znwm@PLT
	movq	%rax, %rbx
	movq	%rbx, %rdi
	call	_ZN8ExprNodeC1Ev
	movq	%rbx, -32(%rbp)
	call	_Z26first_of_simple_expressionv
	testb	%al, %al
	je	.L282
	call	_Z17simple_expressionv
	movq	-32(%rbp), %rdx
	movq	%rax, (%rdx)
	jmp	.L283
.L282:
	movl	$8, %edi
	call	__cxa_allocate_exception@PLT
	leaq	.LC73(%rip), %rdx
	movq	%rdx, (%rax)
	movl	$0, %edx
	leaq	_ZTIPKc(%rip), %rsi
	movq	%rax, %rdi
	call	__cxa_throw@PLT
.L283:
	movl	nextToken(%rip), %eax
	cmpl	$3000, %eax
	je	.L284
	movl	nextToken(%rip), %eax
	cmpl	$3001, %eax
	je	.L284
	movl	nextToken(%rip), %eax
	cmpl	$3011, %eax
	je	.L284
	movl	nextToken(%rip), %eax
	cmpl	$3007, %eax
	je	.L284
	movl	nextToken(%rip), %eax
	cmpl	$3006, %eax
	je	.L284
	movl	nextToken(%rip), %eax
	cmpl	$3008, %eax
	je	.L284
	movl	nextToken(%rip), %eax
	cmpl	$3005, %eax
	jne	.L285
.L284:
	call	_Z6indentv
	leaq	.LC47(%rip), %rsi
	leaq	_ZSt4cout(%rip), %rdi
	call	_ZStlsISt11char_traitsIcEERSt13basic_ostreamIcT_ES5_PKc@PLT
	movq	%rax, %rdx
	movq	yytext(%rip), %rax
	movq	%rax, %rsi
	movq	%rdx, %rdi
	call	_ZStlsISt11char_traitsIcEERSt13basic_ostreamIcT_ES5_PKc@PLT
	movq	%rax, %rdx
	movq	_ZSt4endlIcSt11char_traitsIcEERSt13basic_ostreamIT_T0_ES6_@GOTPCREL(%rip), %rax
	movq	%rax, %rsi
	movq	%rdx, %rdi
	call	_ZNSolsEPFRSoS_E@PLT
	movq	-32(%rbp), %rax
	addq	$8, %rax
	leaq	nextToken(%rip), %rsi
	movq	%rax, %rdi
	call	_ZNSt6vectorIiSaIiEE9push_backERKi
	call	yylex@PLT
	movl	%eax, nextToken(%rip)
	call	_Z26first_of_simple_expressionv
	testb	%al, %al
	je	.L286
	movq	-32(%rbp), %rax
	leaq	32(%rax), %rbx
	call	_Z17simple_expressionv
	movq	%rax, -40(%rbp)
	leaq	-40(%rbp), %rax
	movq	%rax, %rsi
	movq	%rbx, %rdi
	call	_ZNSt6vectorIP14SimpleExprNodeSaIS1_EE9push_backEOS1_
	jmp	.L283
.L286:
	movl	$8, %edi
	call	__cxa_allocate_exception@PLT
	leaq	.LC73(%rip), %rdx
	movq	%rdx, (%rax)
	movl	$0, %edx
	leaq	_ZTIPKc(%rip), %rsi
	movq	%rax, %rdi
	call	__cxa_throw@PLT
.L285:
	movl	level(%rip), %eax
	subl	$1, %eax
	movl	%eax, level(%rip)
	call	_Z6indentv
	leaq	.LC74(%rip), %rsi
	leaq	_ZSt4cout(%rip), %rdi
	call	_ZStlsISt11char_traitsIcEERSt13basic_ostreamIcT_ES5_PKc@PLT
	movq	%rax, %rdx
	movq	_ZSt4endlIcSt11char_traitsIcEERSt13basic_ostreamIT_T0_ES6_@GOTPCREL(%rip), %rax
	movq	%rax, %rsi
	movq	%rdx, %rdi
	call	_ZNSolsEPFRSoS_E@PLT
	movq	-32(%rbp), %rax
	movq	-24(%rbp), %rcx
	xorq	%fs:40, %rcx
	je	.L289
	call	__stack_chk_fail@PLT
.L289:
	addq	$40, %rsp
	popq	%rbx
	popq	%rbp
	.cfi_def_cfa 7, 8
	ret
	.cfi_endproc
.LFE3239:
	.size	_Z10expressionv, .-_Z10expressionv
	.section	.text._ZNSt12_Vector_baseIP8TermNodeSaIS1_EE12_Vector_implD2Ev,"axG",@progbits,_ZNSt12_Vector_baseIP8TermNodeSaIS1_EE12_Vector_implD5Ev,comdat
	.align 2
	.weak	_ZNSt12_Vector_baseIP8TermNodeSaIS1_EE12_Vector_implD2Ev
	.type	_ZNSt12_Vector_baseIP8TermNodeSaIS1_EE12_Vector_implD2Ev, @function
_ZNSt12_Vector_baseIP8TermNodeSaIS1_EE12_Vector_implD2Ev:
.LFB3257:
	.cfi_startproc
	endbr64
	pushq	%rbp
	.cfi_def_cfa_offset 16
	.cfi_offset 6, -16
	movq	%rsp, %rbp
	.cfi_def_cfa_register 6
	subq	$16, %rsp
	movq	%rdi, -8(%rbp)
	movq	-8(%rbp), %rax
	movq	%rax, %rdi
	call	_ZNSaIP8TermNodeED2Ev
	nop
	leave
	.cfi_def_cfa 7, 8
	ret
	.cfi_endproc
.LFE3257:
	.size	_ZNSt12_Vector_baseIP8TermNodeSaIS1_EE12_Vector_implD2Ev, .-_ZNSt12_Vector_baseIP8TermNodeSaIS1_EE12_Vector_implD2Ev
	.weak	_ZNSt12_Vector_baseIP8TermNodeSaIS1_EE12_Vector_implD1Ev
	.set	_ZNSt12_Vector_baseIP8TermNodeSaIS1_EE12_Vector_implD1Ev,_ZNSt12_Vector_baseIP8TermNodeSaIS1_EE12_Vector_implD2Ev
	.section	.text._ZNSt12_Vector_baseIP8TermNodeSaIS1_EEC2Ev,"axG",@progbits,_ZNSt12_Vector_baseIP8TermNodeSaIS1_EEC5Ev,comdat
	.align 2
	.weak	_ZNSt12_Vector_baseIP8TermNodeSaIS1_EEC2Ev
	.type	_ZNSt12_Vector_baseIP8TermNodeSaIS1_EEC2Ev, @function
_ZNSt12_Vector_baseIP8TermNodeSaIS1_EEC2Ev:
.LFB3259:
	.cfi_startproc
	endbr64
	pushq	%rbp
	.cfi_def_cfa_offset 16
	.cfi_offset 6, -16
	movq	%rsp, %rbp
	.cfi_def_cfa_register 6
	subq	$16, %rsp
	movq	%rdi, -8(%rbp)
	movq	-8(%rbp), %rax
	movq	%rax, %rdi
	call	_ZNSt12_Vector_baseIP8TermNodeSaIS1_EE12_Vector_implC1Ev
	nop
	leave
	.cfi_def_cfa 7, 8
	ret
	.cfi_endproc
.LFE3259:
	.size	_ZNSt12_Vector_baseIP8TermNodeSaIS1_EEC2Ev, .-_ZNSt12_Vector_baseIP8TermNodeSaIS1_EEC2Ev
	.weak	_ZNSt12_Vector_baseIP8TermNodeSaIS1_EEC1Ev
	.set	_ZNSt12_Vector_baseIP8TermNodeSaIS1_EEC1Ev,_ZNSt12_Vector_baseIP8TermNodeSaIS1_EEC2Ev
	.section	.text._ZNSt6vectorIP8TermNodeSaIS1_EEC2Ev,"axG",@progbits,_ZNSt6vectorIP8TermNodeSaIS1_EEC5Ev,comdat
	.align 2
	.weak	_ZNSt6vectorIP8TermNodeSaIS1_EEC2Ev
	.type	_ZNSt6vectorIP8TermNodeSaIS1_EEC2Ev, @function
_ZNSt6vectorIP8TermNodeSaIS1_EEC2Ev:
.LFB3261:
	.cfi_startproc
	endbr64
	pushq	%rbp
	.cfi_def_cfa_offset 16
	.cfi_offset 6, -16
	movq	%rsp, %rbp
	.cfi_def_cfa_register 6
	subq	$16, %rsp
	movq	%rdi, -8(%rbp)
	movq	-8(%rbp), %rax
	movq	%rax, %rdi
	call	_ZNSt12_Vector_baseIP8TermNodeSaIS1_EEC2Ev
	nop
	leave
	.cfi_def_cfa 7, 8
	ret
	.cfi_endproc
.LFE3261:
	.size	_ZNSt6vectorIP8TermNodeSaIS1_EEC2Ev, .-_ZNSt6vectorIP8TermNodeSaIS1_EEC2Ev
	.weak	_ZNSt6vectorIP8TermNodeSaIS1_EEC1Ev
	.set	_ZNSt6vectorIP8TermNodeSaIS1_EEC1Ev,_ZNSt6vectorIP8TermNodeSaIS1_EEC2Ev
	.section	.text._ZN14SimpleExprNodeC2Ev,"axG",@progbits,_ZN14SimpleExprNodeC5Ev,comdat
	.align 2
	.weak	_ZN14SimpleExprNodeC2Ev
	.type	_ZN14SimpleExprNodeC2Ev, @function
_ZN14SimpleExprNodeC2Ev:
.LFB3263:
	.cfi_startproc
	endbr64
	pushq	%rbp
	.cfi_def_cfa_offset 16
	.cfi_offset 6, -16
	movq	%rsp, %rbp
	.cfi_def_cfa_register 6
	subq	$16, %rsp
	movq	%rdi, -8(%rbp)
	movq	-8(%rbp), %rax
	movq	$0, (%rax)
	movq	-8(%rbp), %rax
	addq	$8, %rax
	movq	%rax, %rdi
	call	_ZNSt6vectorIiSaIiEEC1Ev
	movq	-8(%rbp), %rax
	addq	$32, %rax
	movq	%rax, %rdi
	call	_ZNSt6vectorIP8TermNodeSaIS1_EEC1Ev
	nop
	leave
	.cfi_def_cfa 7, 8
	ret
	.cfi_endproc
.LFE3263:
	.size	_ZN14SimpleExprNodeC2Ev, .-_ZN14SimpleExprNodeC2Ev
	.weak	_ZN14SimpleExprNodeC1Ev
	.set	_ZN14SimpleExprNodeC1Ev,_ZN14SimpleExprNodeC2Ev
	.section	.rodata
.LC75:
	.string	"enter <simple expression>"
.LC76:
	.string	"902: illegal type of term"
.LC77:
	.string	"exit <simple expression>"
	.text
	.globl	_Z17simple_expressionv
	.type	_Z17simple_expressionv, @function
_Z17simple_expressionv:
.LFB3252:
	.cfi_startproc
	endbr64
	pushq	%rbp
	.cfi_def_cfa_offset 16
	.cfi_offset 6, -16
	movq	%rsp, %rbp
	.cfi_def_cfa_register 6
	pushq	%rbx
	subq	$40, %rsp
	.cfi_offset 3, -24
	movq	%fs:40, %rax
	movq	%rax, -24(%rbp)
	xorl	%eax, %eax
	call	_Z26first_of_simple_expressionv
	xorl	$1, %eax
	testb	%al, %al
	je	.L296
	movl	$8, %edi
	call	__cxa_allocate_exception@PLT
	leaq	.LC73(%rip), %rdx
	movq	%rdx, (%rax)
	movl	$0, %edx
	leaq	_ZTIPKc(%rip), %rsi
	movq	%rax, %rdi
	call	__cxa_throw@PLT
.L296:
	call	_Z6indentv
	leaq	.LC75(%rip), %rsi
	leaq	_ZSt4cout(%rip), %rdi
	call	_ZStlsISt11char_traitsIcEERSt13basic_ostreamIcT_ES5_PKc@PLT
	movq	%rax, %rdx
	movq	_ZSt4endlIcSt11char_traitsIcEERSt13basic_ostreamIT_T0_ES6_@GOTPCREL(%rip), %rax
	movq	%rax, %rsi
	movq	%rdx, %rdi
	call	_ZNSolsEPFRSoS_E@PLT
	movl	level(%rip), %eax
	addl	$1, %eax
	movl	%eax, level(%rip)
	movl	$56, %edi
	call	_Znwm@PLT
	movq	%rax, %rbx
	movq	%rbx, %rdi
	call	_ZN14SimpleExprNodeC1Ev
	movq	%rbx, -32(%rbp)
	call	_Z13first_of_termv
	testb	%al, %al
	je	.L297
	call	_Z4termv
	movq	-32(%rbp), %rdx
	movq	%rax, (%rdx)
	jmp	.L298
.L297:
	movl	$8, %edi
	call	__cxa_allocate_exception@PLT
	leaq	.LC76(%rip), %rdx
	movq	%rdx, (%rax)
	movl	$0, %edx
	leaq	_ZTIPKc(%rip), %rsi
	movq	%rax, %rdi
	call	__cxa_throw@PLT
.L298:
	movl	nextToken(%rip), %eax
	cmpl	$3000, %eax
	je	.L299
	movl	nextToken(%rip), %eax
	cmpl	$3001, %eax
	je	.L299
	movl	nextToken(%rip), %eax
	cmpl	$3011, %eax
	jne	.L300
.L299:
	call	_Z6indentv
	leaq	.LC47(%rip), %rsi
	leaq	_ZSt4cout(%rip), %rdi
	call	_ZStlsISt11char_traitsIcEERSt13basic_ostreamIcT_ES5_PKc@PLT
	movq	%rax, %rdx
	movq	yytext(%rip), %rax
	movq	%rax, %rsi
	movq	%rdx, %rdi
	call	_ZStlsISt11char_traitsIcEERSt13basic_ostreamIcT_ES5_PKc@PLT
	movq	%rax, %rdx
	movq	_ZSt4endlIcSt11char_traitsIcEERSt13basic_ostreamIT_T0_ES6_@GOTPCREL(%rip), %rax
	movq	%rax, %rsi
	movq	%rdx, %rdi
	call	_ZNSolsEPFRSoS_E@PLT
	movq	-32(%rbp), %rax
	addq	$8, %rax
	leaq	nextToken(%rip), %rsi
	movq	%rax, %rdi
	call	_ZNSt6vectorIiSaIiEE9push_backERKi
	call	yylex@PLT
	movl	%eax, nextToken(%rip)
	call	_Z13first_of_termv
	testb	%al, %al
	je	.L301
	movq	-32(%rbp), %rax
	leaq	32(%rax), %rbx
	call	_Z4termv
	movq	%rax, -40(%rbp)
	leaq	-40(%rbp), %rax
	movq	%rax, %rsi
	movq	%rbx, %rdi
	call	_ZNSt6vectorIP8TermNodeSaIS1_EE9push_backEOS1_
	jmp	.L298
.L301:
	movl	$8, %edi
	call	__cxa_allocate_exception@PLT
	leaq	.LC76(%rip), %rdx
	movq	%rdx, (%rax)
	movl	$0, %edx
	leaq	_ZTIPKc(%rip), %rsi
	movq	%rax, %rdi
	call	__cxa_throw@PLT
.L300:
	movl	level(%rip), %eax
	subl	$1, %eax
	movl	%eax, level(%rip)
	call	_Z6indentv
	leaq	.LC77(%rip), %rsi
	leaq	_ZSt4cout(%rip), %rdi
	call	_ZStlsISt11char_traitsIcEERSt13basic_ostreamIcT_ES5_PKc@PLT
	movq	%rax, %rdx
	movq	_ZSt4endlIcSt11char_traitsIcEERSt13basic_ostreamIT_T0_ES6_@GOTPCREL(%rip), %rax
	movq	%rax, %rsi
	movq	%rdx, %rdi
	call	_ZNSolsEPFRSoS_E@PLT
	movq	-32(%rbp), %rax
	movq	-24(%rbp), %rcx
	xorq	%fs:40, %rcx
	je	.L304
	call	__stack_chk_fail@PLT
.L304:
	addq	$40, %rsp
	popq	%rbx
	popq	%rbp
	.cfi_def_cfa 7, 8
	ret
	.cfi_endproc
.LFE3252:
	.size	_Z17simple_expressionv, .-_Z17simple_expressionv
	.section	.text._ZNSt12_Vector_baseIP10FactorNodeSaIS1_EE12_Vector_implD2Ev,"axG",@progbits,_ZNSt12_Vector_baseIP10FactorNodeSaIS1_EE12_Vector_implD5Ev,comdat
	.align 2
	.weak	_ZNSt12_Vector_baseIP10FactorNodeSaIS1_EE12_Vector_implD2Ev
	.type	_ZNSt12_Vector_baseIP10FactorNodeSaIS1_EE12_Vector_implD2Ev, @function
_ZNSt12_Vector_baseIP10FactorNodeSaIS1_EE12_Vector_implD2Ev:
.LFB3270:
	.cfi_startproc
	endbr64
	pushq	%rbp
	.cfi_def_cfa_offset 16
	.cfi_offset 6, -16
	movq	%rsp, %rbp
	.cfi_def_cfa_register 6
	subq	$16, %rsp
	movq	%rdi, -8(%rbp)
	movq	-8(%rbp), %rax
	movq	%rax, %rdi
	call	_ZNSaIP10FactorNodeED2Ev
	nop
	leave
	.cfi_def_cfa 7, 8
	ret
	.cfi_endproc
.LFE3270:
	.size	_ZNSt12_Vector_baseIP10FactorNodeSaIS1_EE12_Vector_implD2Ev, .-_ZNSt12_Vector_baseIP10FactorNodeSaIS1_EE12_Vector_implD2Ev
	.weak	_ZNSt12_Vector_baseIP10FactorNodeSaIS1_EE12_Vector_implD1Ev
	.set	_ZNSt12_Vector_baseIP10FactorNodeSaIS1_EE12_Vector_implD1Ev,_ZNSt12_Vector_baseIP10FactorNodeSaIS1_EE12_Vector_implD2Ev
	.section	.text._ZNSt12_Vector_baseIP10FactorNodeSaIS1_EEC2Ev,"axG",@progbits,_ZNSt12_Vector_baseIP10FactorNodeSaIS1_EEC5Ev,comdat
	.align 2
	.weak	_ZNSt12_Vector_baseIP10FactorNodeSaIS1_EEC2Ev
	.type	_ZNSt12_Vector_baseIP10FactorNodeSaIS1_EEC2Ev, @function
_ZNSt12_Vector_baseIP10FactorNodeSaIS1_EEC2Ev:
.LFB3272:
	.cfi_startproc
	endbr64
	pushq	%rbp
	.cfi_def_cfa_offset 16
	.cfi_offset 6, -16
	movq	%rsp, %rbp
	.cfi_def_cfa_register 6
	subq	$16, %rsp
	movq	%rdi, -8(%rbp)
	movq	-8(%rbp), %rax
	movq	%rax, %rdi
	call	_ZNSt12_Vector_baseIP10FactorNodeSaIS1_EE12_Vector_implC1Ev
	nop
	leave
	.cfi_def_cfa 7, 8
	ret
	.cfi_endproc
.LFE3272:
	.size	_ZNSt12_Vector_baseIP10FactorNodeSaIS1_EEC2Ev, .-_ZNSt12_Vector_baseIP10FactorNodeSaIS1_EEC2Ev
	.weak	_ZNSt12_Vector_baseIP10FactorNodeSaIS1_EEC1Ev
	.set	_ZNSt12_Vector_baseIP10FactorNodeSaIS1_EEC1Ev,_ZNSt12_Vector_baseIP10FactorNodeSaIS1_EEC2Ev
	.section	.text._ZNSt6vectorIP10FactorNodeSaIS1_EEC2Ev,"axG",@progbits,_ZNSt6vectorIP10FactorNodeSaIS1_EEC5Ev,comdat
	.align 2
	.weak	_ZNSt6vectorIP10FactorNodeSaIS1_EEC2Ev
	.type	_ZNSt6vectorIP10FactorNodeSaIS1_EEC2Ev, @function
_ZNSt6vectorIP10FactorNodeSaIS1_EEC2Ev:
.LFB3274:
	.cfi_startproc
	endbr64
	pushq	%rbp
	.cfi_def_cfa_offset 16
	.cfi_offset 6, -16
	movq	%rsp, %rbp
	.cfi_def_cfa_register 6
	subq	$16, %rsp
	movq	%rdi, -8(%rbp)
	movq	-8(%rbp), %rax
	movq	%rax, %rdi
	call	_ZNSt12_Vector_baseIP10FactorNodeSaIS1_EEC2Ev
	nop
	leave
	.cfi_def_cfa 7, 8
	ret
	.cfi_endproc
.LFE3274:
	.size	_ZNSt6vectorIP10FactorNodeSaIS1_EEC2Ev, .-_ZNSt6vectorIP10FactorNodeSaIS1_EEC2Ev
	.weak	_ZNSt6vectorIP10FactorNodeSaIS1_EEC1Ev
	.set	_ZNSt6vectorIP10FactorNodeSaIS1_EEC1Ev,_ZNSt6vectorIP10FactorNodeSaIS1_EEC2Ev
	.section	.text._ZN8TermNodeC2Ev,"axG",@progbits,_ZN8TermNodeC5Ev,comdat
	.align 2
	.weak	_ZN8TermNodeC2Ev
	.type	_ZN8TermNodeC2Ev, @function
_ZN8TermNodeC2Ev:
.LFB3276:
	.cfi_startproc
	endbr64
	pushq	%rbp
	.cfi_def_cfa_offset 16
	.cfi_offset 6, -16
	movq	%rsp, %rbp
	.cfi_def_cfa_register 6
	subq	$16, %rsp
	movq	%rdi, -8(%rbp)
	movq	-8(%rbp), %rax
	movq	$0, (%rax)
	movq	-8(%rbp), %rax
	addq	$8, %rax
	movq	%rax, %rdi
	call	_ZNSt6vectorIiSaIiEEC1Ev
	movq	-8(%rbp), %rax
	addq	$32, %rax
	movq	%rax, %rdi
	call	_ZNSt6vectorIP10FactorNodeSaIS1_EEC1Ev
	nop
	leave
	.cfi_def_cfa 7, 8
	ret
	.cfi_endproc
.LFE3276:
	.size	_ZN8TermNodeC2Ev, .-_ZN8TermNodeC2Ev
	.weak	_ZN8TermNodeC1Ev
	.set	_ZN8TermNodeC1Ev,_ZN8TermNodeC2Ev
	.section	.rodata
.LC78:
	.string	"enter <term>"
.LC79:
	.string	"903: illegal type of factor"
.LC80:
	.string	"exit <term>"
	.text
	.globl	_Z4termv
	.type	_Z4termv, @function
_Z4termv:
.LFB3265:
	.cfi_startproc
	endbr64
	pushq	%rbp
	.cfi_def_cfa_offset 16
	.cfi_offset 6, -16
	movq	%rsp, %rbp
	.cfi_def_cfa_register 6
	pushq	%rbx
	subq	$40, %rsp
	.cfi_offset 3, -24
	movq	%fs:40, %rax
	movq	%rax, -24(%rbp)
	xorl	%eax, %eax
	call	_Z13first_of_termv
	xorl	$1, %eax
	testb	%al, %al
	je	.L311
	movl	$8, %edi
	call	__cxa_allocate_exception@PLT
	leaq	.LC76(%rip), %rdx
	movq	%rdx, (%rax)
	movl	$0, %edx
	leaq	_ZTIPKc(%rip), %rsi
	movq	%rax, %rdi
	call	__cxa_throw@PLT
.L311:
	call	_Z6indentv
	leaq	.LC78(%rip), %rsi
	leaq	_ZSt4cout(%rip), %rdi
	call	_ZStlsISt11char_traitsIcEERSt13basic_ostreamIcT_ES5_PKc@PLT
	movq	%rax, %rdx
	movq	_ZSt4endlIcSt11char_traitsIcEERSt13basic_ostreamIT_T0_ES6_@GOTPCREL(%rip), %rax
	movq	%rax, %rsi
	movq	%rdx, %rdi
	call	_ZNSolsEPFRSoS_E@PLT
	movl	level(%rip), %eax
	addl	$1, %eax
	movl	%eax, level(%rip)
	movl	$56, %edi
	call	_Znwm@PLT
	movq	%rax, %rbx
	movq	%rbx, %rdi
	call	_ZN8TermNodeC1Ev
	movq	%rbx, -32(%rbp)
	call	_Z15first_of_factorv
	testb	%al, %al
	je	.L312
	call	_Z6factorv
	movq	-32(%rbp), %rdx
	movq	%rax, (%rdx)
	jmp	.L313
.L312:
	movl	$8, %edi
	call	__cxa_allocate_exception@PLT
	leaq	.LC79(%rip), %rdx
	movq	%rdx, (%rax)
	movl	$0, %edx
	leaq	_ZTIPKc(%rip), %rsi
	movq	%rax, %rdi
	call	__cxa_throw@PLT
.L313:
	movl	nextToken(%rip), %eax
	cmpl	$3002, %eax
	je	.L314
	movl	nextToken(%rip), %eax
	cmpl	$3003, %eax
	je	.L314
	movl	nextToken(%rip), %eax
	cmpl	$3012, %eax
	jne	.L315
.L314:
	call	_Z6indentv
	leaq	.LC47(%rip), %rsi
	leaq	_ZSt4cout(%rip), %rdi
	call	_ZStlsISt11char_traitsIcEERSt13basic_ostreamIcT_ES5_PKc@PLT
	movq	%rax, %rdx
	movq	yytext(%rip), %rax
	movq	%rax, %rsi
	movq	%rdx, %rdi
	call	_ZStlsISt11char_traitsIcEERSt13basic_ostreamIcT_ES5_PKc@PLT
	movq	%rax, %rdx
	movq	_ZSt4endlIcSt11char_traitsIcEERSt13basic_ostreamIT_T0_ES6_@GOTPCREL(%rip), %rax
	movq	%rax, %rsi
	movq	%rdx, %rdi
	call	_ZNSolsEPFRSoS_E@PLT
	movq	-32(%rbp), %rax
	addq	$8, %rax
	leaq	nextToken(%rip), %rsi
	movq	%rax, %rdi
	call	_ZNSt6vectorIiSaIiEE9push_backERKi
	call	yylex@PLT
	movl	%eax, nextToken(%rip)
	call	_Z15first_of_factorv
	testb	%al, %al
	je	.L316
	movq	-32(%rbp), %rax
	leaq	32(%rax), %rbx
	call	_Z6factorv
	movq	%rax, -40(%rbp)
	leaq	-40(%rbp), %rax
	movq	%rax, %rsi
	movq	%rbx, %rdi
	call	_ZNSt6vectorIP10FactorNodeSaIS1_EE9push_backEOS1_
	jmp	.L313
.L316:
	movl	$8, %edi
	call	__cxa_allocate_exception@PLT
	leaq	.LC79(%rip), %rdx
	movq	%rdx, (%rax)
	movl	$0, %edx
	leaq	_ZTIPKc(%rip), %rsi
	movq	%rax, %rdi
	call	__cxa_throw@PLT
.L315:
	movl	level(%rip), %eax
	subl	$1, %eax
	movl	%eax, level(%rip)
	call	_Z6indentv
	leaq	.LC80(%rip), %rsi
	leaq	_ZSt4cout(%rip), %rdi
	call	_ZStlsISt11char_traitsIcEERSt13basic_ostreamIcT_ES5_PKc@PLT
	movq	%rax, %rdx
	movq	_ZSt4endlIcSt11char_traitsIcEERSt13basic_ostreamIT_T0_ES6_@GOTPCREL(%rip), %rax
	movq	%rax, %rsi
	movq	%rdx, %rdi
	call	_ZNSolsEPFRSoS_E@PLT
	movq	-32(%rbp), %rax
	movq	-24(%rbp), %rcx
	xorq	%fs:40, %rcx
	je	.L319
	call	__stack_chk_fail@PLT
.L319:
	addq	$40, %rsp
	popq	%rbx
	popq	%rbp
	.cfi_def_cfa 7, 8
	ret
	.cfi_endproc
.LFE3265:
	.size	_Z4termv, .-_Z4termv
	.section	.rodata
.LC81:
	.string	"enter <factor>"
.LC82:
	.string	"<expr> does not end with )"
.LC83:
	.string	"ERROR!!!"
.LC84:
	.string	"exit <factor>"
	.text
	.globl	_Z6factorv
	.type	_Z6factorv, @function
_Z6factorv:
.LFB3278:
	.cfi_startproc
	.cfi_personality 0x9b,DW.ref.__gxx_personality_v0
	.cfi_lsda 0x1b,.LLSDA3278
	endbr64
	pushq	%rbp
	.cfi_def_cfa_offset 16
	.cfi_offset 6, -16
	movq	%rsp, %rbp
	.cfi_def_cfa_register 6
	pushq	%r13
	pushq	%r12
	pushq	%rbx
	subq	$72, %rsp
	.cfi_offset 13, -24
	.cfi_offset 12, -32
	.cfi_offset 3, -40
	movq	%fs:40, %rax
	movq	%rax, -40(%rbp)
	xorl	%eax, %eax
	call	_Z15first_of_factorv
	xorl	$1, %eax
	testb	%al, %al
	je	.L322
	movl	$8, %edi
	call	__cxa_allocate_exception@PLT
	leaq	.LC79(%rip), %rdx
	movq	%rdx, (%rax)
	movl	$0, %edx
	leaq	_ZTIPKc(%rip), %rsi
	movq	%rax, %rdi
.LEHB29:
	call	__cxa_throw@PLT
.L322:
	call	_Z6indentv
	leaq	.LC81(%rip), %rsi
	leaq	_ZSt4cout(%rip), %rdi
	call	_ZStlsISt11char_traitsIcEERSt13basic_ostreamIcT_ES5_PKc@PLT
	movq	%rax, %rdx
	movq	_ZSt4endlIcSt11char_traitsIcEERSt13basic_ostreamIT_T0_ES6_@GOTPCREL(%rip), %rax
	movq	%rax, %rsi
	movq	%rdx, %rdi
	call	_ZNSolsEPFRSoS_E@PLT
.LEHE29:
	movl	level(%rip), %eax
	addl	$1, %eax
	movl	%eax, level(%rip)
	movq	$0, -88(%rbp)
	movl	$0, %ebx
	leaq	-89(%rbp), %rax
	movq	%rax, %rdi
	call	_ZNSaIcEC1Ev@PLT
	movl	$1, %r12d
	movq	yytext(%rip), %rcx
	leaq	-89(%rbp), %rdx
	leaq	-80(%rbp), %rax
	movq	%rcx, %rsi
	movq	%rax, %rdi
.LEHB30:
	call	_ZNSt7__cxx1112basic_stringIcSt11char_traitsIcESaIcEEC1EPKcRKS3_@PLT
	movl	$1, %ebx
	leaq	-80(%rbp), %rax
	movq	%rax, %rsi
	leaq	_Z11symbolTableB5cxx11(%rip), %rdi
	call	_ZNKSt3setINSt7__cxx1112basic_stringIcSt11char_traitsIcESaIcEEESt4lessIS5_ESaIS5_EE5countERKS5_
.LEHE30:
	testq	%rax, %rax
	jne	.L323
	movl	nextToken(%rip), %eax
	cmpl	$4000, %eax
	jne	.L323
	movl	$1, %r13d
	jmp	.L324
.L323:
	movl	$0, %r13d
.L324:
	testb	%bl, %bl
	je	.L325
	leaq	-80(%rbp), %rax
	movq	%rax, %rdi
	call	_ZNSt7__cxx1112basic_stringIcSt11char_traitsIcESaIcEED1Ev@PLT
.L325:
	testb	%r12b, %r12b
	je	.L326
	leaq	-89(%rbp), %rax
	movq	%rax, %rdi
	call	_ZNSaIcED1Ev@PLT
.L326:
	testb	%r13b, %r13b
	je	.L327
	movl	$8, %edi
	call	__cxa_allocate_exception@PLT
	leaq	.LC65(%rip), %rdx
	movq	%rdx, (%rax)
	movl	$0, %edx
	leaq	_ZTIPKc(%rip), %rsi
	movq	%rax, %rdi
.LEHB31:
	call	__cxa_throw@PLT
.L327:
	movl	nextToken(%rip), %eax
	cmpl	$4002, %eax
	je	.L328
	cmpl	$4002, %eax
	jg	.L329
	cmpl	$4001, %eax
	je	.L330
	cmpl	$4001, %eax
	jg	.L329
	cmpl	$4000, %eax
	je	.L331
	cmpl	$4000, %eax
	jg	.L329
	cmpl	$3010, %eax
	je	.L332
	cmpl	$3010, %eax
	jg	.L329
	cmpl	$2002, %eax
	je	.L333
	cmpl	$3001, %eax
	je	.L334
	jmp	.L329
.L330:
	call	_Z6indentv
	leaq	.LC47(%rip), %rsi
	leaq	_ZSt4cout(%rip), %rdi
	call	_ZStlsISt11char_traitsIcEERSt13basic_ostreamIcT_ES5_PKc@PLT
	movq	%rax, %rdx
	movq	yytext(%rip), %rax
	movq	%rax, %rsi
	movq	%rdx, %rdi
	call	_ZStlsISt11char_traitsIcEERSt13basic_ostreamIcT_ES5_PKc@PLT
	movq	%rax, %rdx
	movq	_ZSt4endlIcSt11char_traitsIcEERSt13basic_ostreamIT_T0_ES6_@GOTPCREL(%rip), %rax
	movq	%rax, %rsi
	movq	%rdx, %rdi
	call	_ZNSolsEPFRSoS_E@PLT
	movl	$16, %edi
	call	_Znwm@PLT
	movq	%rax, %rbx
	movq	yytext(%rip), %rax
	movq	%rax, %rdi
	call	atoi@PLT
	movl	%eax, %esi
	movq	%rbx, %rdi
	call	_ZN10IntLitNodeC1Ei
	movq	%rbx, -88(%rbp)
	call	yylex@PLT
	movl	%eax, nextToken(%rip)
	jmp	.L335
.L328:
	call	_Z6indentv
	leaq	.LC47(%rip), %rsi
	leaq	_ZSt4cout(%rip), %rdi
	call	_ZStlsISt11char_traitsIcEERSt13basic_ostreamIcT_ES5_PKc@PLT
	movq	%rax, %rdx
	movq	yytext(%rip), %rax
	movq	%rax, %rsi
	movq	%rdx, %rdi
	call	_ZStlsISt11char_traitsIcEERSt13basic_ostreamIcT_ES5_PKc@PLT
	movq	%rax, %rdx
	movq	_ZSt4endlIcSt11char_traitsIcEERSt13basic_ostreamIT_T0_ES6_@GOTPCREL(%rip), %rax
	movq	%rax, %rsi
	movq	%rdx, %rdi
	call	_ZNSolsEPFRSoS_E@PLT
	movl	$16, %edi
	call	_Znwm@PLT
	movq	%rax, %rbx
	movq	yytext(%rip), %rax
	movq	%rax, %rdi
	call	atof@PLT
	cvtsd2ss	%xmm0, %xmm0
	movq	%rbx, %rdi
	call	_ZN12FloatLitNodeC1Ef
	movq	%rbx, -88(%rbp)
	call	yylex@PLT
	movl	%eax, nextToken(%rip)
	jmp	.L335
.L331:
	call	_Z6indentv
	leaq	.LC47(%rip), %rsi
	leaq	_ZSt4cout(%rip), %rdi
	call	_ZStlsISt11char_traitsIcEERSt13basic_ostreamIcT_ES5_PKc@PLT
	movq	%rax, %rdx
	movq	yytext(%rip), %rax
	movq	%rax, %rsi
	movq	%rdx, %rdi
	call	_ZStlsISt11char_traitsIcEERSt13basic_ostreamIcT_ES5_PKc@PLT
	movq	%rax, %rdx
	movq	_ZSt4endlIcSt11char_traitsIcEERSt13basic_ostreamIT_T0_ES6_@GOTPCREL(%rip), %rax
	movq	%rax, %rsi
	movq	%rdx, %rdi
	call	_ZNSolsEPFRSoS_E@PLT
.LEHE31:
	leaq	-89(%rbp), %rax
	movq	%rax, %rdi
	call	_ZNSaIcEC1Ev@PLT
	movq	yytext(%rip), %rcx
	leaq	-89(%rbp), %rdx
	leaq	-80(%rbp), %rax
	movq	%rcx, %rsi
	movq	%rax, %rdi
.LEHB32:
	call	_ZNSt7__cxx1112basic_stringIcSt11char_traitsIcESaIcEEC1EPKcRKS3_@PLT
.LEHE32:
	leaq	-80(%rbp), %r12
	movl	$16, %edi
.LEHB33:
	call	_Znwm@PLT
.LEHE33:
	movq	%rax, %rbx
	movq	%r12, %rsi
	movq	%rbx, %rdi
.LEHB34:
	call	_ZN6IdNodeC1ENSt7__cxx1112basic_stringIcSt11char_traitsIcESaIcEEE
.LEHE34:
	movq	%rbx, -88(%rbp)
	leaq	-80(%rbp), %rax
	movq	%rax, %rdi
	call	_ZNSt7__cxx1112basic_stringIcSt11char_traitsIcESaIcEED1Ev@PLT
	leaq	-89(%rbp), %rax
	movq	%rax, %rdi
	call	_ZNSaIcED1Ev@PLT
.LEHB35:
	call	yylex@PLT
	movl	%eax, nextToken(%rip)
	jmp	.L335
.L333:
	call	_Z6indentv
	leaq	.LC47(%rip), %rsi
	leaq	_ZSt4cout(%rip), %rdi
	call	_ZStlsISt11char_traitsIcEERSt13basic_ostreamIcT_ES5_PKc@PLT
	movq	%rax, %rdx
	movq	yytext(%rip), %rax
	movq	%rax, %rsi
	movq	%rdx, %rdi
	call	_ZStlsISt11char_traitsIcEERSt13basic_ostreamIcT_ES5_PKc@PLT
	movq	%rax, %rdx
	movq	_ZSt4endlIcSt11char_traitsIcEERSt13basic_ostreamIT_T0_ES6_@GOTPCREL(%rip), %rax
	movq	%rax, %rsi
	movq	%rdx, %rdi
	call	_ZNSolsEPFRSoS_E@PLT
	call	yylex@PLT
	movl	%eax, nextToken(%rip)
	call	_Z19first_of_expressionv
	xorl	$1, %eax
	testb	%al, %al
	je	.L336
	movl	$8, %edi
	call	__cxa_allocate_exception@PLT
	leaq	.LC71(%rip), %rdx
	movq	%rdx, (%rax)
	movl	$0, %edx
	leaq	_ZTIPKc(%rip), %rsi
	movq	%rax, %rdi
	call	__cxa_throw@PLT
.L336:
	call	_Z10expressionv
	movq	%rax, %r12
	movl	$16, %edi
	call	_Znwm@PLT
	movq	%rax, %rbx
	movq	%r12, %rsi
	movq	%rbx, %rdi
	call	_ZN14NestedExprNodeC1EP8ExprNode
	movq	%rbx, -88(%rbp)
	movl	nextToken(%rip), %eax
	cmpl	$2003, %eax
	jne	.L337
	call	_Z6indentv
	leaq	.LC47(%rip), %rsi
	leaq	_ZSt4cout(%rip), %rdi
	call	_ZStlsISt11char_traitsIcEERSt13basic_ostreamIcT_ES5_PKc@PLT
	movq	%rax, %rdx
	movq	yytext(%rip), %rax
	movq	%rax, %rsi
	movq	%rdx, %rdi
	call	_ZStlsISt11char_traitsIcEERSt13basic_ostreamIcT_ES5_PKc@PLT
	movq	%rax, %rdx
	movq	_ZSt4endlIcSt11char_traitsIcEERSt13basic_ostreamIT_T0_ES6_@GOTPCREL(%rip), %rax
	movq	%rax, %rsi
	movq	%rdx, %rdi
	call	_ZNSolsEPFRSoS_E@PLT
	call	yylex@PLT
	movl	%eax, nextToken(%rip)
	jmp	.L335
.L337:
	movl	$8, %edi
	call	__cxa_allocate_exception@PLT
	leaq	.LC82(%rip), %rdx
	movq	%rdx, (%rax)
	movl	$0, %edx
	leaq	_ZTIPKc(%rip), %rsi
	movq	%rax, %rdi
	call	__cxa_throw@PLT
.L332:
	call	_Z6indentv
	leaq	.LC47(%rip), %rsi
	leaq	_ZSt4cout(%rip), %rdi
	call	_ZStlsISt11char_traitsIcEERSt13basic_ostreamIcT_ES5_PKc@PLT
	movq	%rax, %rdx
	movq	yytext(%rip), %rax
	movq	%rax, %rsi
	movq	%rdx, %rdi
	call	_ZStlsISt11char_traitsIcEERSt13basic_ostreamIcT_ES5_PKc@PLT
	movq	%rax, %rdx
	movq	_ZSt4endlIcSt11char_traitsIcEERSt13basic_ostreamIT_T0_ES6_@GOTPCREL(%rip), %rax
	movq	%rax, %rsi
	movq	%rdx, %rdi
	call	_ZNSolsEPFRSoS_E@PLT
	call	yylex@PLT
	movl	%eax, nextToken(%rip)
	call	_Z15first_of_factorv
	testb	%al, %al
	je	.L339
	call	_Z6factorv
	jmp	.L335
.L339:
	movl	$8, %edi
	call	__cxa_allocate_exception@PLT
	leaq	.LC79(%rip), %rdx
	movq	%rdx, (%rax)
	movl	$0, %edx
	leaq	_ZTIPKc(%rip), %rsi
	movq	%rax, %rdi
	call	__cxa_throw@PLT
.L334:
	call	_Z6indentv
	leaq	.LC47(%rip), %rsi
	leaq	_ZSt4cout(%rip), %rdi
	call	_ZStlsISt11char_traitsIcEERSt13basic_ostreamIcT_ES5_PKc@PLT
	movq	%rax, %rdx
	movq	yytext(%rip), %rax
	movq	%rax, %rsi
	movq	%rdx, %rdi
	call	_ZStlsISt11char_traitsIcEERSt13basic_ostreamIcT_ES5_PKc@PLT
	movq	%rax, %rdx
	movq	_ZSt4endlIcSt11char_traitsIcEERSt13basic_ostreamIT_T0_ES6_@GOTPCREL(%rip), %rax
	movq	%rax, %rsi
	movq	%rdx, %rdi
	call	_ZNSolsEPFRSoS_E@PLT
	call	yylex@PLT
	movl	%eax, nextToken(%rip)
	call	_Z15first_of_factorv
	testb	%al, %al
	je	.L341
	call	_Z6factorv
	jmp	.L335
.L341:
	movl	$8, %edi
	call	__cxa_allocate_exception@PLT
	leaq	.LC79(%rip), %rdx
	movq	%rdx, (%rax)
	movl	$0, %edx
	leaq	_ZTIPKc(%rip), %rsi
	movq	%rax, %rdi
	call	__cxa_throw@PLT
.L329:
	movl	$8, %edi
	call	__cxa_allocate_exception@PLT
	leaq	.LC83(%rip), %rdx
	movq	%rdx, (%rax)
	movl	$0, %edx
	leaq	_ZTIPKc(%rip), %rsi
	movq	%rax, %rdi
	call	__cxa_throw@PLT
.L335:
	movl	level(%rip), %eax
	subl	$1, %eax
	movl	%eax, level(%rip)
	call	_Z6indentv
	leaq	.LC84(%rip), %rsi
	leaq	_ZSt4cout(%rip), %rdi
	call	_ZStlsISt11char_traitsIcEERSt13basic_ostreamIcT_ES5_PKc@PLT
	movq	%rax, %rdx
	movq	_ZSt4endlIcSt11char_traitsIcEERSt13basic_ostreamIT_T0_ES6_@GOTPCREL(%rip), %rax
	movq	%rax, %rsi
	movq	%rdx, %rdi
	call	_ZNSolsEPFRSoS_E@PLT
	movq	-88(%rbp), %rax
	movq	-40(%rbp), %rcx
	xorq	%fs:40, %rcx
	je	.L350
	jmp	.L355
.L351:
	endbr64
	movq	%rax, %r13
	testb	%bl, %bl
	je	.L345
	leaq	-80(%rbp), %rax
	movq	%rax, %rdi
	call	_ZNSt7__cxx1112basic_stringIcSt11char_traitsIcESaIcEED1Ev@PLT
.L345:
	movq	%r13, %rbx
	testb	%r12b, %r12b
	je	.L346
	leaq	-89(%rbp), %rax
	movq	%rax, %rdi
	call	_ZNSaIcED1Ev@PLT
.L346:
	movq	%rbx, %rax
	movq	%rax, %rdi
	call	_Unwind_Resume@PLT
.L354:
	endbr64
	movq	%rax, %r12
	movl	$16, %esi
	movq	%rbx, %rdi
	call	_ZdlPvm@PLT
	movq	%r12, %rbx
	jmp	.L348
.L353:
	endbr64
	movq	%rax, %rbx
.L348:
	leaq	-80(%rbp), %rax
	movq	%rax, %rdi
	call	_ZNSt7__cxx1112basic_stringIcSt11char_traitsIcESaIcEED1Ev@PLT
	jmp	.L349
.L352:
	endbr64
	movq	%rax, %rbx
.L349:
	leaq	-89(%rbp), %rax
	movq	%rax, %rdi
	call	_ZNSaIcED1Ev@PLT
	movq	%rbx, %rax
	movq	%rax, %rdi
	call	_Unwind_Resume@PLT
.LEHE35:
.L355:
	call	__stack_chk_fail@PLT
.L350:
	addq	$72, %rsp
	popq	%rbx
	popq	%r12
	popq	%r13
	popq	%rbp
	.cfi_def_cfa 7, 8
	ret
	.cfi_endproc
.LFE3278:
	.section	.gcc_except_table
.LLSDA3278:
	.byte	0xff
	.byte	0xff
	.byte	0x1
	.uleb128 .LLSDACSE3278-.LLSDACSB3278
.LLSDACSB3278:
	.uleb128 .LEHB29-.LFB3278
	.uleb128 .LEHE29-.LEHB29
	.uleb128 0
	.uleb128 0
	.uleb128 .LEHB30-.LFB3278
	.uleb128 .LEHE30-.LEHB30
	.uleb128 .L351-.LFB3278
	.uleb128 0
	.uleb128 .LEHB31-.LFB3278
	.uleb128 .LEHE31-.LEHB31
	.uleb128 0
	.uleb128 0
	.uleb128 .LEHB32-.LFB3278
	.uleb128 .LEHE32-.LEHB32
	.uleb128 .L352-.LFB3278
	.uleb128 0
	.uleb128 .LEHB33-.LFB3278
	.uleb128 .LEHE33-.LEHB33
	.uleb128 .L353-.LFB3278
	.uleb128 0
	.uleb128 .LEHB34-.LFB3278
	.uleb128 .LEHE34-.LEHB34
	.uleb128 .L354-.LFB3278
	.uleb128 0
	.uleb128 .LEHB35-.LFB3278
	.uleb128 .LEHE35-.LEHB35
	.uleb128 0
	.uleb128 0
.LLSDACSE3278:
	.text
	.size	_Z6factorv, .-_Z6factorv
	.section	.text._ZN6IfNodeC2Ev,"axG",@progbits,_ZN6IfNodeC5Ev,comdat
	.align 2
	.weak	_ZN6IfNodeC2Ev
	.type	_ZN6IfNodeC2Ev, @function
_ZN6IfNodeC2Ev:
.LFB3281:
	.cfi_startproc
	endbr64
	pushq	%rbp
	.cfi_def_cfa_offset 16
	.cfi_offset 6, -16
	movq	%rsp, %rbp
	.cfi_def_cfa_register 6
	subq	$16, %rsp
	movq	%rdi, -8(%rbp)
	movq	-8(%rbp), %rax
	movq	%rax, %rdi
	call	_ZN13StatementNodeC2Ev
	leaq	16+_ZTV6IfNode(%rip), %rdx
	movq	-8(%rbp), %rax
	movq	%rdx, (%rax)
	movq	-8(%rbp), %rax
	movq	$0, 8(%rax)
	movq	-8(%rbp), %rax
	movq	$0, 16(%rax)
	movq	-8(%rbp), %rax
	addq	$24, %rax
	movq	%rax, %rdi
	call	_ZNSt6vectorIP13StatementNodeSaIS1_EEC1Ev
	nop
	leave
	.cfi_def_cfa 7, 8
	ret
	.cfi_endproc
.LFE3281:
	.size	_ZN6IfNodeC2Ev, .-_ZN6IfNodeC2Ev
	.weak	_ZN6IfNodeC1Ev
	.set	_ZN6IfNodeC1Ev,_ZN6IfNodeC2Ev
	.section	.rodata
.LC85:
	.string	"enter <if statement>"
.LC86:
	.string	"exit <if statement>"
	.text
	.globl	_Z6ifstatv
	.type	_Z6ifstatv, @function
_Z6ifstatv:
.LFB3279:
	.cfi_startproc
	endbr64
	pushq	%rbp
	.cfi_def_cfa_offset 16
	.cfi_offset 6, -16
	movq	%rsp, %rbp
	.cfi_def_cfa_register 6
	pushq	%rbx
	subq	$24, %rsp
	.cfi_offset 3, -24
	call	_Z15first_of_ifstatv
	xorl	$1, %eax
	testb	%al, %al
	je	.L358
	movl	$8, %edi
	call	__cxa_allocate_exception@PLT
	leaq	.LC60(%rip), %rdx
	movq	%rdx, (%rax)
	movl	$0, %edx
	leaq	_ZTIPKc(%rip), %rsi
	movq	%rax, %rdi
	call	__cxa_throw@PLT
.L358:
	call	_Z6indentv
	leaq	.LC85(%rip), %rsi
	leaq	_ZSt4cout(%rip), %rdi
	call	_ZStlsISt11char_traitsIcEERSt13basic_ostreamIcT_ES5_PKc@PLT
	movq	%rax, %rdx
	movq	_ZSt4endlIcSt11char_traitsIcEERSt13basic_ostreamIT_T0_ES6_@GOTPCREL(%rip), %rax
	movq	%rax, %rsi
	movq	%rdx, %rdi
	call	_ZNSolsEPFRSoS_E@PLT
	movl	level(%rip), %eax
	addl	$1, %eax
	movl	%eax, level(%rip)
	movl	$48, %edi
	call	_Znwm@PLT
	movq	%rax, %rbx
	movq	%rbx, %rdi
	call	_ZN6IfNodeC1Ev
	movq	%rbx, -24(%rbp)
	movl	nextToken(%rip), %eax
	cmpl	$1007, %eax
	jne	.L359
	call	_Z6indentv
	leaq	.LC47(%rip), %rsi
	leaq	_ZSt4cout(%rip), %rdi
	call	_ZStlsISt11char_traitsIcEERSt13basic_ostreamIcT_ES5_PKc@PLT
	movq	%rax, %rdx
	movq	yytext(%rip), %rax
	movq	%rax, %rsi
	movq	%rdx, %rdi
	call	_ZStlsISt11char_traitsIcEERSt13basic_ostreamIcT_ES5_PKc@PLT
	movq	%rax, %rdx
	movq	_ZSt4endlIcSt11char_traitsIcEERSt13basic_ostreamIT_T0_ES6_@GOTPCREL(%rip), %rax
	movq	%rax, %rsi
	movq	%rdx, %rdi
	call	_ZNSolsEPFRSoS_E@PLT
	call	yylex@PLT
	movl	%eax, nextToken(%rip)
.L362:
	call	_Z19first_of_expressionv
	testb	%al, %al
	je	.L359
	call	_Z10expressionv
	movq	-24(%rbp), %rdx
	movq	%rax, 8(%rdx)
	call	_Z6indentv
	leaq	.LC47(%rip), %rsi
	leaq	_ZSt4cout(%rip), %rdi
	call	_ZStlsISt11char_traitsIcEERSt13basic_ostreamIcT_ES5_PKc@PLT
	movq	%rax, %rdx
	movq	yytext(%rip), %rax
	movq	%rax, %rsi
	movq	%rdx, %rdi
	call	_ZStlsISt11char_traitsIcEERSt13basic_ostreamIcT_ES5_PKc@PLT
	movq	%rax, %rdx
	movq	_ZSt4endlIcSt11char_traitsIcEERSt13basic_ostreamIT_T0_ES6_@GOTPCREL(%rip), %rax
	movq	%rax, %rsi
	movq	%rdx, %rdi
	call	_ZNSolsEPFRSoS_E@PLT
	movl	nextToken(%rip), %eax
	cmpl	$1012, %eax
	je	.L368
	call	yylex@PLT
	movl	%eax, nextToken(%rip)
	jmp	.L362
.L368:
	nop
.L359:
	movl	nextToken(%rip), %eax
	cmpl	$1012, %eax
	jne	.L363
	call	yylex@PLT
	movl	%eax, nextToken(%rip)
	call	_Z18first_of_statementv
	testb	%al, %al
	je	.L364
	call	_Z9statementv
	movq	-24(%rbp), %rdx
	movq	%rax, 16(%rdx)
	jmp	.L363
.L364:
	movl	$8, %edi
	call	__cxa_allocate_exception@PLT
	leaq	.LC57(%rip), %rdx
	movq	%rdx, (%rax)
	movl	$0, %edx
	leaq	_ZTIPKc(%rip), %rsi
	movq	%rax, %rdi
	call	__cxa_throw@PLT
.L363:
	movl	nextToken(%rip), %eax
	cmpl	$1004, %eax
	jne	.L365
	call	_Z6indentv
	leaq	.LC47(%rip), %rsi
	leaq	_ZSt4cout(%rip), %rdi
	call	_ZStlsISt11char_traitsIcEERSt13basic_ostreamIcT_ES5_PKc@PLT
	movq	%rax, %rdx
	movq	yytext(%rip), %rax
	movq	%rax, %rsi
	movq	%rdx, %rdi
	call	_ZStlsISt11char_traitsIcEERSt13basic_ostreamIcT_ES5_PKc@PLT
	movq	%rax, %rdx
	movq	_ZSt4endlIcSt11char_traitsIcEERSt13basic_ostreamIT_T0_ES6_@GOTPCREL(%rip), %rax
	movq	%rax, %rsi
	movq	%rdx, %rdi
	call	_ZNSolsEPFRSoS_E@PLT
	call	yylex@PLT
	movl	%eax, nextToken(%rip)
	call	_Z18first_of_statementv
	testb	%al, %al
	je	.L366
	call	_Z9statementv
	movq	-24(%rbp), %rdx
	movq	%rax, 16(%rdx)
	jmp	.L365
.L366:
	movl	$8, %edi
	call	__cxa_allocate_exception@PLT
	leaq	.LC57(%rip), %rdx
	movq	%rdx, (%rax)
	movl	$0, %edx
	leaq	_ZTIPKc(%rip), %rsi
	movq	%rax, %rdi
	call	__cxa_throw@PLT
.L365:
	movl	level(%rip), %eax
	subl	$1, %eax
	movl	%eax, level(%rip)
	call	_Z6indentv
	leaq	.LC86(%rip), %rsi
	leaq	_ZSt4cout(%rip), %rdi
	call	_ZStlsISt11char_traitsIcEERSt13basic_ostreamIcT_ES5_PKc@PLT
	movq	%rax, %rdx
	movq	_ZSt4endlIcSt11char_traitsIcEERSt13basic_ostreamIT_T0_ES6_@GOTPCREL(%rip), %rax
	movq	%rax, %rsi
	movq	%rdx, %rdi
	call	_ZNSolsEPFRSoS_E@PLT
	movq	-24(%rbp), %rax
	addq	$24, %rsp
	popq	%rbx
	popq	%rbp
	.cfi_def_cfa 7, 8
	ret
	.cfi_endproc
.LFE3279:
	.size	_Z6ifstatv, .-_Z6ifstatv
	.section	.text._ZN9WhileNodeC2Ev,"axG",@progbits,_ZN9WhileNodeC5Ev,comdat
	.align 2
	.weak	_ZN9WhileNodeC2Ev
	.type	_ZN9WhileNodeC2Ev, @function
_ZN9WhileNodeC2Ev:
.LFB3285:
	.cfi_startproc
	endbr64
	pushq	%rbp
	.cfi_def_cfa_offset 16
	.cfi_offset 6, -16
	movq	%rsp, %rbp
	.cfi_def_cfa_register 6
	subq	$16, %rsp
	movq	%rdi, -8(%rbp)
	movq	-8(%rbp), %rax
	movq	%rax, %rdi
	call	_ZN13StatementNodeC2Ev
	leaq	16+_ZTV9WhileNode(%rip), %rdx
	movq	-8(%rbp), %rax
	movq	%rdx, (%rax)
	movq	-8(%rbp), %rax
	movq	$0, 8(%rax)
	movq	-8(%rbp), %rax
	movq	$0, 16(%rax)
	movq	-8(%rbp), %rax
	addq	$24, %rax
	movq	%rax, %rdi
	call	_ZNSt6vectorIP13StatementNodeSaIS1_EEC1Ev
	nop
	leave
	.cfi_def_cfa 7, 8
	ret
	.cfi_endproc
.LFE3285:
	.size	_ZN9WhileNodeC2Ev, .-_ZN9WhileNodeC2Ev
	.weak	_ZN9WhileNodeC1Ev
	.set	_ZN9WhileNodeC1Ev,_ZN9WhileNodeC2Ev
	.section	.rodata
.LC87:
	.string	"enter <while statement>"
.LC88:
	.string	"exit <while statement>"
	.text
	.globl	_Z9whilestatv
	.type	_Z9whilestatv, @function
_Z9whilestatv:
.LFB3283:
	.cfi_startproc
	endbr64
	pushq	%rbp
	.cfi_def_cfa_offset 16
	.cfi_offset 6, -16
	movq	%rsp, %rbp
	.cfi_def_cfa_register 6
	pushq	%rbx
	subq	$24, %rsp
	.cfi_offset 3, -24
	call	_Z18first_of_whilestatv
	xorl	$1, %eax
	testb	%al, %al
	je	.L371
	movl	$8, %edi
	call	__cxa_allocate_exception@PLT
	leaq	.LC60(%rip), %rdx
	movq	%rdx, (%rax)
	movl	$0, %edx
	leaq	_ZTIPKc(%rip), %rsi
	movq	%rax, %rdi
	call	__cxa_throw@PLT
.L371:
	call	_Z6indentv
	leaq	.LC87(%rip), %rsi
	leaq	_ZSt4cout(%rip), %rdi
	call	_ZStlsISt11char_traitsIcEERSt13basic_ostreamIcT_ES5_PKc@PLT
	movq	%rax, %rdx
	movq	_ZSt4endlIcSt11char_traitsIcEERSt13basic_ostreamIT_T0_ES6_@GOTPCREL(%rip), %rax
	movq	%rax, %rsi
	movq	%rdx, %rdi
	call	_ZNSolsEPFRSoS_E@PLT
	movl	level(%rip), %eax
	addl	$1, %eax
	movl	%eax, level(%rip)
	movl	$48, %edi
	call	_Znwm@PLT
	movq	%rax, %rbx
	movq	%rbx, %rdi
	call	_ZN9WhileNodeC1Ev
	movq	%rbx, -24(%rbp)
.L376:
	call	_Z6indentv
	leaq	.LC47(%rip), %rsi
	leaq	_ZSt4cout(%rip), %rdi
	call	_ZStlsISt11char_traitsIcEERSt13basic_ostreamIcT_ES5_PKc@PLT
	movq	%rax, %rdx
	movq	yytext(%rip), %rax
	movq	%rax, %rsi
	movq	%rdx, %rdi
	call	_ZStlsISt11char_traitsIcEERSt13basic_ostreamIcT_ES5_PKc@PLT
	movq	%rax, %rdx
	movq	_ZSt4endlIcSt11char_traitsIcEERSt13basic_ostreamIT_T0_ES6_@GOTPCREL(%rip), %rax
	movq	%rax, %rsi
	movq	%rdx, %rdi
	call	_ZNSolsEPFRSoS_E@PLT
	call	yylex@PLT
	movl	%eax, nextToken(%rip)
	call	_Z19first_of_expressionv
	xorl	$1, %eax
	testb	%al, %al
	je	.L372
	movl	$8, %edi
	call	__cxa_allocate_exception@PLT
	leaq	.LC71(%rip), %rdx
	movq	%rdx, (%rax)
	movl	$0, %edx
	leaq	_ZTIPKc(%rip), %rsi
	movq	%rax, %rdi
	call	__cxa_throw@PLT
.L372:
	call	_Z10expressionv
	movq	-24(%rbp), %rdx
	movq	%rax, 8(%rdx)
	call	_Z18first_of_statementv
	testb	%al, %al
	je	.L373
	call	_Z9statementv
	movq	-24(%rbp), %rdx
	movq	%rax, 16(%rdx)
	movl	nextToken(%rip), %eax
	cmpl	$1015, %eax
	jne	.L375
	jmp	.L376
.L373:
	movl	$8, %edi
	call	__cxa_allocate_exception@PLT
	leaq	.LC57(%rip), %rdx
	movq	%rdx, (%rax)
	movl	$0, %edx
	leaq	_ZTIPKc(%rip), %rsi
	movq	%rax, %rdi
	call	__cxa_throw@PLT
.L375:
	movl	level(%rip), %eax
	subl	$1, %eax
	movl	%eax, level(%rip)
	call	_Z6indentv
	leaq	.LC88(%rip), %rsi
	leaq	_ZSt4cout(%rip), %rdi
	call	_ZStlsISt11char_traitsIcEERSt13basic_ostreamIcT_ES5_PKc@PLT
	movq	%rax, %rdx
	movq	_ZSt4endlIcSt11char_traitsIcEERSt13basic_ostreamIT_T0_ES6_@GOTPCREL(%rip), %rax
	movq	%rax, %rsi
	movq	%rdx, %rdi
	call	_ZNSolsEPFRSoS_E@PLT
	movq	-24(%rbp), %rax
	addq	$24, %rsp
	popq	%rbx
	popq	%rbp
	.cfi_def_cfa 7, 8
	ret
	.cfi_endproc
.LFE3283:
	.size	_Z9whilestatv, .-_Z9whilestatv
	.section	.text._ZN8ReadNodeC2Ev,"axG",@progbits,_ZN8ReadNodeC5Ev,comdat
	.align 2
	.weak	_ZN8ReadNodeC2Ev
	.type	_ZN8ReadNodeC2Ev, @function
_ZN8ReadNodeC2Ev:
.LFB3289:
	.cfi_startproc
	endbr64
	pushq	%rbp
	.cfi_def_cfa_offset 16
	.cfi_offset 6, -16
	movq	%rsp, %rbp
	.cfi_def_cfa_register 6
	subq	$16, %rsp
	movq	%rdi, -8(%rbp)
	movq	-8(%rbp), %rax
	movq	%rax, %rdi
	call	_ZN13StatementNodeC2Ev
	leaq	16+_ZTV8ReadNode(%rip), %rdx
	movq	-8(%rbp), %rax
	movq	%rdx, (%rax)
	movq	-8(%rbp), %rax
	movq	$0, 8(%rax)
	movq	-8(%rbp), %rax
	addq	$16, %rax
	movq	%rax, %rdi
	call	_ZNSt6vectorIP13StatementNodeSaIS1_EEC1Ev
	nop
	leave
	.cfi_def_cfa 7, 8
	ret
	.cfi_endproc
.LFE3289:
	.size	_ZN8ReadNodeC2Ev, .-_ZN8ReadNodeC2Ev
	.weak	_ZN8ReadNodeC1Ev
	.set	_ZN8ReadNodeC1Ev,_ZN8ReadNodeC2Ev
	.section	.rodata
.LC89:
	.string	"enter <read>"
.LC90:
	.string	"exit <read>"
	.text
	.globl	_Z4readv
	.type	_Z4readv, @function
_Z4readv:
.LFB3287:
	.cfi_startproc
	.cfi_personality 0x9b,DW.ref.__gxx_personality_v0
	.cfi_lsda 0x1b,.LLSDA3287
	endbr64
	pushq	%rbp
	.cfi_def_cfa_offset 16
	.cfi_offset 6, -16
	movq	%rsp, %rbp
	.cfi_def_cfa_register 6
	pushq	%r12
	pushq	%rbx
	subq	$32, %rsp
	.cfi_offset 12, -24
	.cfi_offset 3, -32
	movq	%fs:40, %rax
	movq	%rax, -24(%rbp)
	xorl	%eax, %eax
	call	_Z13first_of_readv
	xorl	$1, %eax
	testb	%al, %al
	je	.L381
	movl	$8, %edi
	call	__cxa_allocate_exception@PLT
	leaq	.LC60(%rip), %rdx
	movq	%rdx, (%rax)
	movl	$0, %edx
	leaq	_ZTIPKc(%rip), %rsi
	movq	%rax, %rdi
.LEHB36:
	call	__cxa_throw@PLT
.L381:
	call	_Z6indentv
	leaq	.LC89(%rip), %rsi
	leaq	_ZSt4cout(%rip), %rdi
	call	_ZStlsISt11char_traitsIcEERSt13basic_ostreamIcT_ES5_PKc@PLT
	movq	%rax, %rdx
	movq	_ZSt4endlIcSt11char_traitsIcEERSt13basic_ostreamIT_T0_ES6_@GOTPCREL(%rip), %rax
	movq	%rax, %rsi
	movq	%rdx, %rdi
	call	_ZNSolsEPFRSoS_E@PLT
	movl	level(%rip), %eax
	addl	$1, %eax
	movl	%eax, level(%rip)
	movl	$40, %edi
	call	_Znwm@PLT
	movq	%rax, %rbx
	movq	%rbx, %rdi
	call	_ZN8ReadNodeC1Ev
	movq	%rbx, -32(%rbp)
.L385:
	call	_Z6indentv
	leaq	.LC47(%rip), %rsi
	leaq	_ZSt4cout(%rip), %rdi
	call	_ZStlsISt11char_traitsIcEERSt13basic_ostreamIcT_ES5_PKc@PLT
	movq	%rax, %rdx
	movq	yytext(%rip), %rax
	movq	%rax, %rsi
	movq	%rdx, %rdi
	call	_ZStlsISt11char_traitsIcEERSt13basic_ostreamIcT_ES5_PKc@PLT
	movq	%rax, %rdx
	movq	_ZSt4endlIcSt11char_traitsIcEERSt13basic_ostreamIT_T0_ES6_@GOTPCREL(%rip), %rax
	movq	%rax, %rsi
	movq	%rdx, %rdi
	call	_ZNSolsEPFRSoS_E@PLT
.LEHE36:
	movl	nextToken(%rip), %eax
	cmpl	$4000, %eax
	jne	.L382
	leaq	-33(%rbp), %rax
	movq	%rax, %rdi
	call	_ZNSaIcEC1Ev@PLT
	leaq	-33(%rbp), %r12
	movl	$32, %edi
.LEHB37:
	call	_Znwm@PLT
.LEHE37:
	movq	%rax, %rbx
	movq	yytext(%rip), %rax
	movq	%r12, %rdx
	movq	%rax, %rsi
	movq	%rbx, %rdi
.LEHB38:
	call	_ZNSt7__cxx1112basic_stringIcSt11char_traitsIcESaIcEEC1EPKcRKS3_@PLT
.LEHE38:
	movq	-32(%rbp), %rax
	movq	%rbx, 8(%rax)
	leaq	-33(%rbp), %rax
	movq	%rax, %rdi
	call	_ZNSaIcED1Ev@PLT
.L382:
.LEHB39:
	call	yylex@PLT
	movl	%eax, nextToken(%rip)
	movl	nextToken(%rip), %eax
	cmpl	$2002, %eax
	je	.L385
	movl	nextToken(%rip), %eax
	cmpl	$4000, %eax
	je	.L385
	movl	nextToken(%rip), %eax
	cmpl	$2003, %eax
	jne	.L384
	jmp	.L385
.L384:
	movl	level(%rip), %eax
	subl	$1, %eax
	movl	%eax, level(%rip)
	call	_Z6indentv
	leaq	.LC90(%rip), %rsi
	leaq	_ZSt4cout(%rip), %rdi
	call	_ZStlsISt11char_traitsIcEERSt13basic_ostreamIcT_ES5_PKc@PLT
	movq	%rax, %rdx
	movq	_ZSt4endlIcSt11char_traitsIcEERSt13basic_ostreamIT_T0_ES6_@GOTPCREL(%rip), %rax
	movq	%rax, %rsi
	movq	%rdx, %rdi
	call	_ZNSolsEPFRSoS_E@PLT
	movq	-32(%rbp), %rax
	movq	-24(%rbp), %rcx
	xorq	%fs:40, %rcx
	je	.L389
	jmp	.L392
.L391:
	endbr64
	movq	%rax, %r12
	movl	$32, %esi
	movq	%rbx, %rdi
	call	_ZdlPvm@PLT
	movq	%r12, %rbx
	jmp	.L388
.L390:
	endbr64
	movq	%rax, %rbx
.L388:
	leaq	-33(%rbp), %rax
	movq	%rax, %rdi
	call	_ZNSaIcED1Ev@PLT
	movq	%rbx, %rax
	movq	%rax, %rdi
	call	_Unwind_Resume@PLT
.LEHE39:
.L392:
	call	__stack_chk_fail@PLT
.L389:
	addq	$32, %rsp
	popq	%rbx
	popq	%r12
	popq	%rbp
	.cfi_def_cfa 7, 8
	ret
	.cfi_endproc
.LFE3287:
	.section	.gcc_except_table
.LLSDA3287:
	.byte	0xff
	.byte	0xff
	.byte	0x1
	.uleb128 .LLSDACSE3287-.LLSDACSB3287
.LLSDACSB3287:
	.uleb128 .LEHB36-.LFB3287
	.uleb128 .LEHE36-.LEHB36
	.uleb128 0
	.uleb128 0
	.uleb128 .LEHB37-.LFB3287
	.uleb128 .LEHE37-.LEHB37
	.uleb128 .L390-.LFB3287
	.uleb128 0
	.uleb128 .LEHB38-.LFB3287
	.uleb128 .LEHE38-.LEHB38
	.uleb128 .L391-.LFB3287
	.uleb128 0
	.uleb128 .LEHB39-.LFB3287
	.uleb128 .LEHE39-.LEHB39
	.uleb128 0
	.uleb128 0
.LLSDACSE3287:
	.text
	.size	_Z4readv, .-_Z4readv
	.section	.text._ZN9WriteNodeC2Ev,"axG",@progbits,_ZN9WriteNodeC5Ev,comdat
	.align 2
	.weak	_ZN9WriteNodeC2Ev
	.type	_ZN9WriteNodeC2Ev, @function
_ZN9WriteNodeC2Ev:
.LFB3293:
	.cfi_startproc
	endbr64
	pushq	%rbp
	.cfi_def_cfa_offset 16
	.cfi_offset 6, -16
	movq	%rsp, %rbp
	.cfi_def_cfa_register 6
	subq	$16, %rsp
	movq	%rdi, -8(%rbp)
	movq	-8(%rbp), %rax
	movq	%rax, %rdi
	call	_ZN13StatementNodeC2Ev
	leaq	16+_ZTV9WriteNode(%rip), %rdx
	movq	-8(%rbp), %rax
	movq	%rdx, (%rax)
	movq	-8(%rbp), %rax
	movq	$0, 8(%rax)
	movq	-8(%rbp), %rax
	addq	$16, %rax
	movq	%rax, %rdi
	call	_ZNSt6vectorIP13StatementNodeSaIS1_EEC1Ev
	nop
	leave
	.cfi_def_cfa 7, 8
	ret
	.cfi_endproc
.LFE3293:
	.size	_ZN9WriteNodeC2Ev, .-_ZN9WriteNodeC2Ev
	.weak	_ZN9WriteNodeC1Ev
	.set	_ZN9WriteNodeC1Ev,_ZN9WriteNodeC2Ev
	.section	.rodata
.LC91:
	.string	"enter <write>"
.LC92:
	.string	"Value "
.LC93:
	.string	"String "
.LC94:
	.string	"exit <write>"
	.text
	.globl	_Z5writev
	.type	_Z5writev, @function
_Z5writev:
.LFB3291:
	.cfi_startproc
	.cfi_personality 0x9b,DW.ref.__gxx_personality_v0
	.cfi_lsda 0x1b,.LLSDA3291
	endbr64
	pushq	%rbp
	.cfi_def_cfa_offset 16
	.cfi_offset 6, -16
	movq	%rsp, %rbp
	.cfi_def_cfa_register 6
	pushq	%r14
	pushq	%r13
	pushq	%r12
	pushq	%rbx
	subq	$96, %rsp
	.cfi_offset 14, -24
	.cfi_offset 13, -32
	.cfi_offset 12, -40
	.cfi_offset 3, -48
	movq	%fs:40, %rax
	movq	%rax, -40(%rbp)
	xorl	%eax, %eax
	call	_Z14first_of_writev
	xorl	$1, %eax
	testb	%al, %al
	je	.L395
	movl	$8, %edi
	call	__cxa_allocate_exception@PLT
	leaq	.LC61(%rip), %rdx
	movq	%rdx, (%rax)
	movl	$0, %edx
	leaq	_ZTIPKc(%rip), %rsi
	movq	%rax, %rdi
.LEHB40:
	call	__cxa_throw@PLT
.L395:
	call	_Z6indentv
	leaq	.LC91(%rip), %rsi
	leaq	_ZSt4cout(%rip), %rdi
	call	_ZStlsISt11char_traitsIcEERSt13basic_ostreamIcT_ES5_PKc@PLT
	movq	%rax, %rdx
	movq	_ZSt4endlIcSt11char_traitsIcEERSt13basic_ostreamIT_T0_ES6_@GOTPCREL(%rip), %rax
	movq	%rax, %rsi
	movq	%rdx, %rdi
	call	_ZNSolsEPFRSoS_E@PLT
	movl	level(%rip), %eax
	addl	$1, %eax
	movl	%eax, level(%rip)
	movl	$40, %edi
	call	_Znwm@PLT
	movq	%rax, %rbx
	movq	%rbx, %rdi
	call	_ZN9WriteNodeC1Ev
	movq	%rbx, -120(%rbp)
.L403:
	movl	nextToken(%rip), %eax
	cmpl	$1016, %eax
	je	.L396
	movl	nextToken(%rip), %eax
	cmpl	$2002, %eax
	je	.L396
	movl	nextToken(%rip), %eax
	cmpl	$4000, %eax
	je	.L396
	movl	nextToken(%rip), %eax
	cmpl	$4003, %eax
	jne	.L397
.L396:
	call	_Z6indentv
	leaq	.LC47(%rip), %rsi
	leaq	_ZSt4cout(%rip), %rdi
	call	_ZStlsISt11char_traitsIcEERSt13basic_ostreamIcT_ES5_PKc@PLT
	movq	%rax, %rdx
	movq	yytext(%rip), %rax
	movq	%rax, %rsi
	movq	%rdx, %rdi
	call	_ZStlsISt11char_traitsIcEERSt13basic_ostreamIcT_ES5_PKc@PLT
	movq	%rax, %rdx
	movq	_ZSt4endlIcSt11char_traitsIcEERSt13basic_ostreamIT_T0_ES6_@GOTPCREL(%rip), %rax
	movq	%rax, %rsi
	movq	%rdx, %rdi
	call	_ZNSolsEPFRSoS_E@PLT
.LEHE40:
	movl	nextToken(%rip), %eax
	movl	$0, %r12d
	movl	$0, %r13d
	cmpl	$4000, %eax
	jne	.L398
	leaq	-112(%rbp), %rax
	movl	$6, %edx
	leaq	.LC92(%rip), %rsi
	movq	%rax, %rdi
.LEHB41:
	call	_ZNSt8literals15string_literalsli1sB5cxx11EPKcm
	movl	$1, %r12d
	leaq	-112(%rbp), %r14
	movl	$32, %edi
	call	_Znwm@PLT
.LEHE41:
	movq	%rax, %rbx
	movq	yytext(%rip), %rax
	movq	%rax, %rdx
	movq	%r14, %rsi
	movq	%rbx, %rdi
.LEHB42:
	call	_ZStplIcSt11char_traitsIcESaIcEENSt7__cxx1112basic_stringIT_T0_T1_EEOS8_PKS5_
.LEHE42:
	movq	-120(%rbp), %rax
	movq	%rbx, 8(%rax)
	jmp	.L399
.L398:
	movl	nextToken(%rip), %eax
	cmpl	$4003, %eax
	jne	.L399
	leaq	-80(%rbp), %rax
	movl	$7, %edx
	leaq	.LC93(%rip), %rsi
	movq	%rax, %rdi
.LEHB43:
	call	_ZNSt8literals15string_literalsli1sB5cxx11EPKcm
	movl	$1, %r13d
	leaq	-80(%rbp), %r14
	movl	$32, %edi
	call	_Znwm@PLT
.LEHE43:
	movq	%rax, %rbx
	movq	yytext(%rip), %rax
	movq	%rax, %rdx
	movq	%r14, %rsi
	movq	%rbx, %rdi
.LEHB44:
	call	_ZStplIcSt11char_traitsIcESaIcEENSt7__cxx1112basic_stringIT_T0_T1_EEOS8_PKS5_
.LEHE44:
	movq	-120(%rbp), %rax
	movq	%rbx, 8(%rax)
.L399:
	testb	%r13b, %r13b
	je	.L400
	leaq	-80(%rbp), %rax
	movq	%rax, %rdi
	call	_ZNSt7__cxx1112basic_stringIcSt11char_traitsIcESaIcEED1Ev@PLT
.L400:
	testb	%r12b, %r12b
	je	.L401
	leaq	-112(%rbp), %rax
	movq	%rax, %rdi
	call	_ZNSt7__cxx1112basic_stringIcSt11char_traitsIcESaIcEED1Ev@PLT
.L401:
.LEHB45:
	call	yylex@PLT
	movl	%eax, nextToken(%rip)
	movl	nextToken(%rip), %eax
	cmpl	$2003, %eax
	jne	.L403
	call	_Z6indentv
	leaq	.LC47(%rip), %rsi
	leaq	_ZSt4cout(%rip), %rdi
	call	_ZStlsISt11char_traitsIcEERSt13basic_ostreamIcT_ES5_PKc@PLT
	movq	%rax, %rdx
	movq	yytext(%rip), %rax
	movq	%rax, %rsi
	movq	%rdx, %rdi
	call	_ZStlsISt11char_traitsIcEERSt13basic_ostreamIcT_ES5_PKc@PLT
	movq	%rax, %rdx
	movq	_ZSt4endlIcSt11char_traitsIcEERSt13basic_ostreamIT_T0_ES6_@GOTPCREL(%rip), %rax
	movq	%rax, %rsi
	movq	%rdx, %rdi
	call	_ZNSolsEPFRSoS_E@PLT
	call	yylex@PLT
	movl	%eax, nextToken(%rip)
.L397:
	movl	level(%rip), %eax
	subl	$1, %eax
	movl	%eax, level(%rip)
	call	_Z6indentv
	leaq	.LC94(%rip), %rsi
	leaq	_ZSt4cout(%rip), %rdi
	call	_ZStlsISt11char_traitsIcEERSt13basic_ostreamIcT_ES5_PKc@PLT
	movq	%rax, %rdx
	movq	_ZSt4endlIcSt11char_traitsIcEERSt13basic_ostreamIT_T0_ES6_@GOTPCREL(%rip), %rax
	movq	%rax, %rsi
	movq	%rdx, %rdi
	call	_ZNSolsEPFRSoS_E@PLT
	movq	-120(%rbp), %rax
	movq	-40(%rbp), %rcx
	xorq	%fs:40, %rcx
	je	.L410
	jmp	.L414
.L412:
	endbr64
	movq	%rax, %r14
	movl	$32, %esi
	movq	%rbx, %rdi
	call	_ZdlPvm@PLT
	movq	%r14, %rbx
	jmp	.L406
.L413:
	endbr64
	movq	%rax, %r14
	movl	$32, %esi
	movq	%rbx, %rdi
	call	_ZdlPvm@PLT
	movq	%r14, %rbx
	jmp	.L406
.L411:
	endbr64
	movq	%rax, %rbx
.L406:
	testb	%r13b, %r13b
	je	.L408
	leaq	-80(%rbp), %rax
	movq	%rax, %rdi
	call	_ZNSt7__cxx1112basic_stringIcSt11char_traitsIcESaIcEED1Ev@PLT
.L408:
	testb	%r12b, %r12b
	je	.L409
	leaq	-112(%rbp), %rax
	movq	%rax, %rdi
	call	_ZNSt7__cxx1112basic_stringIcSt11char_traitsIcESaIcEED1Ev@PLT
.L409:
	movq	%rbx, %rax
	movq	%rax, %rdi
	call	_Unwind_Resume@PLT
.LEHE45:
.L414:
	call	__stack_chk_fail@PLT
.L410:
	addq	$96, %rsp
	popq	%rbx
	popq	%r12
	popq	%r13
	popq	%r14
	popq	%rbp
	.cfi_def_cfa 7, 8
	ret
	.cfi_endproc
.LFE3291:
	.section	.gcc_except_table
.LLSDA3291:
	.byte	0xff
	.byte	0xff
	.byte	0x1
	.uleb128 .LLSDACSE3291-.LLSDACSB3291
.LLSDACSB3291:
	.uleb128 .LEHB40-.LFB3291
	.uleb128 .LEHE40-.LEHB40
	.uleb128 0
	.uleb128 0
	.uleb128 .LEHB41-.LFB3291
	.uleb128 .LEHE41-.LEHB41
	.uleb128 .L411-.LFB3291
	.uleb128 0
	.uleb128 .LEHB42-.LFB3291
	.uleb128 .LEHE42-.LEHB42
	.uleb128 .L412-.LFB3291
	.uleb128 0
	.uleb128 .LEHB43-.LFB3291
	.uleb128 .LEHE43-.LEHB43
	.uleb128 .L411-.LFB3291
	.uleb128 0
	.uleb128 .LEHB44-.LFB3291
	.uleb128 .LEHE44-.LEHB44
	.uleb128 .L413-.LFB3291
	.uleb128 0
	.uleb128 .LEHB45-.LFB3291
	.uleb128 .LEHE45-.LEHB45
	.uleb128 0
	.uleb128 0
.LLSDACSE3291:
	.text
	.size	_Z5writev, .-_Z5writev
	.globl	_Z16first_of_programv
	.type	_Z16first_of_programv, @function
_Z16first_of_programv:
.LFB3295:
	.cfi_startproc
	endbr64
	pushq	%rbp
	.cfi_def_cfa_offset 16
	.cfi_offset 6, -16
	movq	%rsp, %rbp
	.cfi_def_cfa_register 6
	movl	nextToken(%rip), %eax
	cmpl	$1009, %eax
	sete	%al
	popq	%rbp
	.cfi_def_cfa 7, 8
	ret
	.cfi_endproc
.LFE3295:
	.size	_Z16first_of_programv, .-_Z16first_of_programv
	.globl	_Z14first_of_blockv
	.type	_Z14first_of_blockv, @function
_Z14first_of_blockv:
.LFB3296:
	.cfi_startproc
	endbr64
	pushq	%rbp
	.cfi_def_cfa_offset 16
	.cfi_offset 6, -16
	movq	%rsp, %rbp
	.cfi_def_cfa_register 6
	movl	nextToken(%rip), %eax
	cmpl	$1014, %eax
	je	.L418
	movl	nextToken(%rip), %eax
	cmpl	$1000, %eax
	jne	.L419
.L418:
	movl	$1, %eax
	jmp	.L420
.L419:
	movl	$0, %eax
.L420:
	popq	%rbp
	.cfi_def_cfa 7, 8
	ret
	.cfi_endproc
.LFE3296:
	.size	_Z14first_of_blockv, .-_Z14first_of_blockv
	.globl	_Z18first_of_statementv
	.type	_Z18first_of_statementv, @function
_Z18first_of_statementv:
.LFB3297:
	.cfi_startproc
	endbr64
	pushq	%rbp
	.cfi_def_cfa_offset 16
	.cfi_offset 6, -16
	movq	%rsp, %rbp
	.cfi_def_cfa_register 6
	movl	nextToken(%rip), %eax
	cmpl	$4000, %eax
	je	.L423
	movl	nextToken(%rip), %eax
	cmpl	$1000, %eax
	je	.L423
	movl	nextToken(%rip), %eax
	cmpl	$1007, %eax
	je	.L423
	movl	nextToken(%rip), %eax
	cmpl	$1015, %eax
	je	.L423
	movl	nextToken(%rip), %eax
	cmpl	$1010, %eax
	je	.L423
	movl	nextToken(%rip), %eax
	cmpl	$1016, %eax
	jne	.L424
.L423:
	movl	$1, %eax
	jmp	.L425
.L424:
	movl	$0, %eax
.L425:
	popq	%rbp
	.cfi_def_cfa 7, 8
	ret
	.cfi_endproc
.LFE3297:
	.size	_Z18first_of_statementv, .-_Z18first_of_statementv
	.globl	_Z19first_of_assignmentv
	.type	_Z19first_of_assignmentv, @function
_Z19first_of_assignmentv:
.LFB3298:
	.cfi_startproc
	endbr64
	pushq	%rbp
	.cfi_def_cfa_offset 16
	.cfi_offset 6, -16
	movq	%rsp, %rbp
	.cfi_def_cfa_register 6
	movl	nextToken(%rip), %eax
	cmpl	$4000, %eax
	sete	%al
	popq	%rbp
	.cfi_def_cfa 7, 8
	ret
	.cfi_endproc
.LFE3298:
	.size	_Z19first_of_assignmentv, .-_Z19first_of_assignmentv
	.globl	_Z17first_of_compoundv
	.type	_Z17first_of_compoundv, @function
_Z17first_of_compoundv:
.LFB3299:
	.cfi_startproc
	endbr64
	pushq	%rbp
	.cfi_def_cfa_offset 16
	.cfi_offset 6, -16
	movq	%rsp, %rbp
	.cfi_def_cfa_register 6
	movl	nextToken(%rip), %eax
	cmpl	$1000, %eax
	sete	%al
	popq	%rbp
	.cfi_def_cfa 7, 8
	ret
	.cfi_endproc
.LFE3299:
	.size	_Z17first_of_compoundv, .-_Z17first_of_compoundv
	.globl	_Z15first_of_ifstatv
	.type	_Z15first_of_ifstatv, @function
_Z15first_of_ifstatv:
.LFB3300:
	.cfi_startproc
	endbr64
	pushq	%rbp
	.cfi_def_cfa_offset 16
	.cfi_offset 6, -16
	movq	%rsp, %rbp
	.cfi_def_cfa_register 6
	movl	nextToken(%rip), %eax
	cmpl	$1007, %eax
	sete	%al
	popq	%rbp
	.cfi_def_cfa 7, 8
	ret
	.cfi_endproc
.LFE3300:
	.size	_Z15first_of_ifstatv, .-_Z15first_of_ifstatv
	.globl	_Z18first_of_whilestatv
	.type	_Z18first_of_whilestatv, @function
_Z18first_of_whilestatv:
.LFB3301:
	.cfi_startproc
	endbr64
	pushq	%rbp
	.cfi_def_cfa_offset 16
	.cfi_offset 6, -16
	movq	%rsp, %rbp
	.cfi_def_cfa_register 6
	movl	nextToken(%rip), %eax
	cmpl	$1015, %eax
	sete	%al
	popq	%rbp
	.cfi_def_cfa 7, 8
	ret
	.cfi_endproc
.LFE3301:
	.size	_Z18first_of_whilestatv, .-_Z18first_of_whilestatv
	.globl	_Z13first_of_readv
	.type	_Z13first_of_readv, @function
_Z13first_of_readv:
.LFB3302:
	.cfi_startproc
	endbr64
	pushq	%rbp
	.cfi_def_cfa_offset 16
	.cfi_offset 6, -16
	movq	%rsp, %rbp
	.cfi_def_cfa_register 6
	movl	nextToken(%rip), %eax
	cmpl	$1010, %eax
	sete	%al
	popq	%rbp
	.cfi_def_cfa 7, 8
	ret
	.cfi_endproc
.LFE3302:
	.size	_Z13first_of_readv, .-_Z13first_of_readv
	.globl	_Z14first_of_writev
	.type	_Z14first_of_writev, @function
_Z14first_of_writev:
.LFB3303:
	.cfi_startproc
	endbr64
	pushq	%rbp
	.cfi_def_cfa_offset 16
	.cfi_offset 6, -16
	movq	%rsp, %rbp
	.cfi_def_cfa_register 6
	movl	nextToken(%rip), %eax
	cmpl	$1016, %eax
	sete	%al
	popq	%rbp
	.cfi_def_cfa 7, 8
	ret
	.cfi_endproc
.LFE3303:
	.size	_Z14first_of_writev, .-_Z14first_of_writev
	.globl	_Z19first_of_expressionv
	.type	_Z19first_of_expressionv, @function
_Z19first_of_expressionv:
.LFB3304:
	.cfi_startproc
	endbr64
	pushq	%rbp
	.cfi_def_cfa_offset 16
	.cfi_offset 6, -16
	movq	%rsp, %rbp
	.cfi_def_cfa_register 6
	movl	nextToken(%rip), %eax
	cmpl	$4001, %eax
	je	.L440
	movl	nextToken(%rip), %eax
	cmpl	$4002, %eax
	je	.L440
	movl	nextToken(%rip), %eax
	cmpl	$4000, %eax
	je	.L440
	movl	nextToken(%rip), %eax
	cmpl	$2002, %eax
	je	.L440
	movl	nextToken(%rip), %eax
	cmpl	$3010, %eax
	je	.L440
	movl	nextToken(%rip), %eax
	cmpl	$3001, %eax
	jne	.L441
.L440:
	movl	$1, %eax
	jmp	.L442
.L441:
	movl	$0, %eax
.L442:
	popq	%rbp
	.cfi_def_cfa 7, 8
	ret
	.cfi_endproc
.LFE3304:
	.size	_Z19first_of_expressionv, .-_Z19first_of_expressionv
	.globl	_Z26first_of_simple_expressionv
	.type	_Z26first_of_simple_expressionv, @function
_Z26first_of_simple_expressionv:
.LFB3305:
	.cfi_startproc
	endbr64
	pushq	%rbp
	.cfi_def_cfa_offset 16
	.cfi_offset 6, -16
	movq	%rsp, %rbp
	.cfi_def_cfa_register 6
	movl	nextToken(%rip), %eax
	cmpl	$4001, %eax
	je	.L445
	movl	nextToken(%rip), %eax
	cmpl	$4002, %eax
	je	.L445
	movl	nextToken(%rip), %eax
	cmpl	$4000, %eax
	je	.L445
	movl	nextToken(%rip), %eax
	cmpl	$2002, %eax
	je	.L445
	movl	nextToken(%rip), %eax
	cmpl	$3010, %eax
	je	.L445
	movl	nextToken(%rip), %eax
	cmpl	$3001, %eax
	jne	.L446
.L445:
	movl	$1, %eax
	jmp	.L447
.L446:
	movl	$0, %eax
.L447:
	popq	%rbp
	.cfi_def_cfa 7, 8
	ret
	.cfi_endproc
.LFE3305:
	.size	_Z26first_of_simple_expressionv, .-_Z26first_of_simple_expressionv
	.globl	_Z13first_of_termv
	.type	_Z13first_of_termv, @function
_Z13first_of_termv:
.LFB3306:
	.cfi_startproc
	endbr64
	pushq	%rbp
	.cfi_def_cfa_offset 16
	.cfi_offset 6, -16
	movq	%rsp, %rbp
	.cfi_def_cfa_register 6
	movl	nextToken(%rip), %eax
	cmpl	$4001, %eax
	je	.L450
	movl	nextToken(%rip), %eax
	cmpl	$4002, %eax
	je	.L450
	movl	nextToken(%rip), %eax
	cmpl	$4000, %eax
	je	.L450
	movl	nextToken(%rip), %eax
	cmpl	$2002, %eax
	je	.L450
	movl	nextToken(%rip), %eax
	cmpl	$3010, %eax
	je	.L450
	movl	nextToken(%rip), %eax
	cmpl	$3001, %eax
	jne	.L451
.L450:
	movl	$1, %eax
	jmp	.L452
.L451:
	movl	$0, %eax
.L452:
	popq	%rbp
	.cfi_def_cfa 7, 8
	ret
	.cfi_endproc
.LFE3306:
	.size	_Z13first_of_termv, .-_Z13first_of_termv
	.globl	_Z15first_of_factorv
	.type	_Z15first_of_factorv, @function
_Z15first_of_factorv:
.LFB3307:
	.cfi_startproc
	endbr64
	pushq	%rbp
	.cfi_def_cfa_offset 16
	.cfi_offset 6, -16
	movq	%rsp, %rbp
	.cfi_def_cfa_register 6
	movl	nextToken(%rip), %eax
	cmpl	$4001, %eax
	je	.L455
	movl	nextToken(%rip), %eax
	cmpl	$4002, %eax
	je	.L455
	movl	nextToken(%rip), %eax
	cmpl	$4000, %eax
	je	.L455
	movl	nextToken(%rip), %eax
	cmpl	$2002, %eax
	je	.L455
	movl	nextToken(%rip), %eax
	cmpl	$3010, %eax
	je	.L455
	movl	nextToken(%rip), %eax
	cmpl	$3001, %eax
	jne	.L456
.L455:
	movl	$1, %eax
	jmp	.L457
.L456:
	movl	$0, %eax
.L457:
	popq	%rbp
	.cfi_def_cfa 7, 8
	ret
	.cfi_endproc
.LFE3307:
	.size	_Z15first_of_factorv, .-_Z15first_of_factorv
	.globl	_Z3pspB5cxx11i
	.type	_Z3pspB5cxx11i, @function
_Z3pspB5cxx11i:
.LFB3308:
	.cfi_startproc
	.cfi_personality 0x9b,DW.ref.__gxx_personality_v0
	.cfi_lsda 0x1b,.LLSDA3308
	endbr64
	pushq	%rbp
	.cfi_def_cfa_offset 16
	.cfi_offset 6, -16
	movq	%rsp, %rbp
	.cfi_def_cfa_register 6
	pushq	%rbx
	subq	$40, %rsp
	.cfi_offset 3, -24
	movq	%rdi, -40(%rbp)
	movl	%esi, -44(%rbp)
	movq	%fs:40, %rax
	movq	%rax, -24(%rbp)
	xorl	%eax, %eax
	leaq	-25(%rbp), %rax
	movq	%rax, %rdi
	call	_ZNSaIcEC1Ev@PLT
	movl	-44(%rbp), %eax
	movslq	%eax, %rsi
	leaq	-25(%rbp), %rdx
	movq	-40(%rbp), %rax
	movq	%rdx, %rcx
	movl	$32, %edx
	movq	%rax, %rdi
.LEHB46:
	call	_ZNSt7__cxx1112basic_stringIcSt11char_traitsIcESaIcEEC1EmcRKS3_@PLT
.LEHE46:
	leaq	-25(%rbp), %rax
	movq	%rax, %rdi
	call	_ZNSaIcED1Ev@PLT
	nop
	movq	-24(%rbp), %rax
	xorq	%fs:40, %rax
	je	.L462
	jmp	.L464
.L463:
	endbr64
	movq	%rax, %rbx
	leaq	-25(%rbp), %rax
	movq	%rax, %rdi
	call	_ZNSaIcED1Ev@PLT
	movq	%rbx, %rax
	movq	%rax, %rdi
.LEHB47:
	call	_Unwind_Resume@PLT
.LEHE47:
.L464:
	call	__stack_chk_fail@PLT
.L462:
	movq	-40(%rbp), %rax
	addq	$40, %rsp
	popq	%rbx
	popq	%rbp
	.cfi_def_cfa 7, 8
	ret
	.cfi_endproc
.LFE3308:
	.section	.gcc_except_table
.LLSDA3308:
	.byte	0xff
	.byte	0xff
	.byte	0x1
	.uleb128 .LLSDACSE3308-.LLSDACSB3308
.LLSDACSB3308:
	.uleb128 .LEHB46-.LFB3308
	.uleb128 .LEHE46-.LEHB46
	.uleb128 .L463-.LFB3308
	.uleb128 0
	.uleb128 .LEHB47-.LFB3308
	.uleb128 .LEHE47-.LEHB47
	.uleb128 0
	.uleb128 0
.LLSDACSE3308:
	.text
	.size	_Z3pspB5cxx11i, .-_Z3pspB5cxx11i
	.section	.text._ZNSt8_Rb_treeINSt7__cxx1112basic_stringIcSt11char_traitsIcESaIcEEES5_St9_IdentityIS5_ESt4lessIS5_ESaIS5_EE13_Rb_tree_implIS9_Lb1EED2Ev,"axG",@progbits,_ZNSt8_Rb_treeINSt7__cxx1112basic_stringIcSt11char_traitsIcESaIcEEES5_St9_IdentityIS5_ESt4lessIS5_ESaIS5_EE13_Rb_tree_implIS9_Lb1EED5Ev,comdat
	.align 2
	.weak	_ZNSt8_Rb_treeINSt7__cxx1112basic_stringIcSt11char_traitsIcESaIcEEES5_St9_IdentityIS5_ESt4lessIS5_ESaIS5_EE13_Rb_tree_implIS9_Lb1EED2Ev
	.type	_ZNSt8_Rb_treeINSt7__cxx1112basic_stringIcSt11char_traitsIcESaIcEEES5_St9_IdentityIS5_ESt4lessIS5_ESaIS5_EE13_Rb_tree_implIS9_Lb1EED2Ev, @function
_ZNSt8_Rb_treeINSt7__cxx1112basic_stringIcSt11char_traitsIcESaIcEEES5_St9_IdentityIS5_ESt4lessIS5_ESaIS5_EE13_Rb_tree_implIS9_Lb1EED2Ev:
.LFB3312:
	.cfi_startproc
	endbr64
	pushq	%rbp
	.cfi_def_cfa_offset 16
	.cfi_offset 6, -16
	movq	%rsp, %rbp
	.cfi_def_cfa_register 6
	subq	$16, %rsp
	movq	%rdi, -8(%rbp)
	movq	-8(%rbp), %rax
	movq	%rax, %rdi
	call	_ZNSaISt13_Rb_tree_nodeINSt7__cxx1112basic_stringIcSt11char_traitsIcESaIcEEEEED2Ev
	nop
	leave
	.cfi_def_cfa 7, 8
	ret
	.cfi_endproc
.LFE3312:
	.size	_ZNSt8_Rb_treeINSt7__cxx1112basic_stringIcSt11char_traitsIcESaIcEEES5_St9_IdentityIS5_ESt4lessIS5_ESaIS5_EE13_Rb_tree_implIS9_Lb1EED2Ev, .-_ZNSt8_Rb_treeINSt7__cxx1112basic_stringIcSt11char_traitsIcESaIcEEES5_St9_IdentityIS5_ESt4lessIS5_ESaIS5_EE13_Rb_tree_implIS9_Lb1EED2Ev
	.weak	_ZNSt8_Rb_treeINSt7__cxx1112basic_stringIcSt11char_traitsIcESaIcEEES5_St9_IdentityIS5_ESt4lessIS5_ESaIS5_EE13_Rb_tree_implIS9_Lb1EED1Ev
	.set	_ZNSt8_Rb_treeINSt7__cxx1112basic_stringIcSt11char_traitsIcESaIcEEES5_St9_IdentityIS5_ESt4lessIS5_ESaIS5_EE13_Rb_tree_implIS9_Lb1EED1Ev,_ZNSt8_Rb_treeINSt7__cxx1112basic_stringIcSt11char_traitsIcESaIcEEES5_St9_IdentityIS5_ESt4lessIS5_ESaIS5_EE13_Rb_tree_implIS9_Lb1EED2Ev
	.section	.text._ZNSt8_Rb_treeINSt7__cxx1112basic_stringIcSt11char_traitsIcESaIcEEES5_St9_IdentityIS5_ESt4lessIS5_ESaIS5_EEC2Ev,"axG",@progbits,_ZNSt8_Rb_treeINSt7__cxx1112basic_stringIcSt11char_traitsIcESaIcEEES5_St9_IdentityIS5_ESt4lessIS5_ESaIS5_EEC5Ev,comdat
	.align 2
	.weak	_ZNSt8_Rb_treeINSt7__cxx1112basic_stringIcSt11char_traitsIcESaIcEEES5_St9_IdentityIS5_ESt4lessIS5_ESaIS5_EEC2Ev
	.type	_ZNSt8_Rb_treeINSt7__cxx1112basic_stringIcSt11char_traitsIcESaIcEEES5_St9_IdentityIS5_ESt4lessIS5_ESaIS5_EEC2Ev, @function
_ZNSt8_Rb_treeINSt7__cxx1112basic_stringIcSt11char_traitsIcESaIcEEES5_St9_IdentityIS5_ESt4lessIS5_ESaIS5_EEC2Ev:
.LFB3314:
	.cfi_startproc
	endbr64
	pushq	%rbp
	.cfi_def_cfa_offset 16
	.cfi_offset 6, -16
	movq	%rsp, %rbp
	.cfi_def_cfa_register 6
	subq	$16, %rsp
	movq	%rdi, -8(%rbp)
	movq	-8(%rbp), %rax
	movq	%rax, %rdi
	call	_ZNSt8_Rb_treeINSt7__cxx1112basic_stringIcSt11char_traitsIcESaIcEEES5_St9_IdentityIS5_ESt4lessIS5_ESaIS5_EE13_Rb_tree_implIS9_Lb1EEC1Ev
	nop
	leave
	.cfi_def_cfa 7, 8
	ret
	.cfi_endproc
.LFE3314:
	.size	_ZNSt8_Rb_treeINSt7__cxx1112basic_stringIcSt11char_traitsIcESaIcEEES5_St9_IdentityIS5_ESt4lessIS5_ESaIS5_EEC2Ev, .-_ZNSt8_Rb_treeINSt7__cxx1112basic_stringIcSt11char_traitsIcESaIcEEES5_St9_IdentityIS5_ESt4lessIS5_ESaIS5_EEC2Ev
	.weak	_ZNSt8_Rb_treeINSt7__cxx1112basic_stringIcSt11char_traitsIcESaIcEEES5_St9_IdentityIS5_ESt4lessIS5_ESaIS5_EEC1Ev
	.set	_ZNSt8_Rb_treeINSt7__cxx1112basic_stringIcSt11char_traitsIcESaIcEEES5_St9_IdentityIS5_ESt4lessIS5_ESaIS5_EEC1Ev,_ZNSt8_Rb_treeINSt7__cxx1112basic_stringIcSt11char_traitsIcESaIcEEES5_St9_IdentityIS5_ESt4lessIS5_ESaIS5_EEC2Ev
	.section	.text._ZNSt3setINSt7__cxx1112basic_stringIcSt11char_traitsIcESaIcEEESt4lessIS5_ESaIS5_EEC2Ev,"axG",@progbits,_ZNSt3setINSt7__cxx1112basic_stringIcSt11char_traitsIcESaIcEEESt4lessIS5_ESaIS5_EEC5Ev,comdat
	.align 2
	.weak	_ZNSt3setINSt7__cxx1112basic_stringIcSt11char_traitsIcESaIcEEESt4lessIS5_ESaIS5_EEC2Ev
	.type	_ZNSt3setINSt7__cxx1112basic_stringIcSt11char_traitsIcESaIcEEESt4lessIS5_ESaIS5_EEC2Ev, @function
_ZNSt3setINSt7__cxx1112basic_stringIcSt11char_traitsIcESaIcEEESt4lessIS5_ESaIS5_EEC2Ev:
.LFB3316:
	.cfi_startproc
	endbr64
	pushq	%rbp
	.cfi_def_cfa_offset 16
	.cfi_offset 6, -16
	movq	%rsp, %rbp
	.cfi_def_cfa_register 6
	subq	$16, %rsp
	movq	%rdi, -8(%rbp)
	movq	-8(%rbp), %rax
	movq	%rax, %rdi
	call	_ZNSt8_Rb_treeINSt7__cxx1112basic_stringIcSt11char_traitsIcESaIcEEES5_St9_IdentityIS5_ESt4lessIS5_ESaIS5_EEC1Ev
	nop
	leave
	.cfi_def_cfa 7, 8
	ret
	.cfi_endproc
.LFE3316:
	.size	_ZNSt3setINSt7__cxx1112basic_stringIcSt11char_traitsIcESaIcEEESt4lessIS5_ESaIS5_EEC2Ev, .-_ZNSt3setINSt7__cxx1112basic_stringIcSt11char_traitsIcESaIcEEESt4lessIS5_ESaIS5_EEC2Ev
	.weak	_ZNSt3setINSt7__cxx1112basic_stringIcSt11char_traitsIcESaIcEEESt4lessIS5_ESaIS5_EEC1Ev
	.set	_ZNSt3setINSt7__cxx1112basic_stringIcSt11char_traitsIcESaIcEEESt4lessIS5_ESaIS5_EEC1Ev,_ZNSt3setINSt7__cxx1112basic_stringIcSt11char_traitsIcESaIcEEESt4lessIS5_ESaIS5_EEC2Ev
	.globl	_Z11symbolTableB5cxx11
	.bss
	.align 32
	.type	_Z11symbolTableB5cxx11, @object
	.size	_Z11symbolTableB5cxx11, 48
_Z11symbolTableB5cxx11:
	.zero	48
	.section	.rodata
	.align 8
.LC95:
	.string	"INFO: Using the %s file for input\n"
.LC96:
	.string	"r"
	.align 8
.LC97:
	.string	"INFO: Using the sample.pas file for input"
.LC98:
	.string	"sample.pas"
.LC99:
	.string	"ERROR: input file not found"
	.align 8
.LC100:
	.string	"end of file expected, but there is more here!"
	.align 8
.LC101:
	.string	"=== Parse was successful! ==="
.LC102:
	.string	"User Defined Symbols:"
	.align 8
.LC103:
	.string	"*** In order traversal of parse tree ***"
.LC104:
	.string	"*** Delete the parse tree ***"
.LC105:
	.string	"***ERROR:"
.LC106:
	.string	"On line number "
.LC107:
	.string	", near "
.LC108:
	.string	", error type "
	.text
	.globl	main
	.type	main, @function
main:
.LFB3318:
	.cfi_startproc
	.cfi_personality 0x9b,DW.ref.__gxx_personality_v0
	.cfi_lsda 0x1b,.LLSDA3318
	endbr64
	pushq	%rbp
	.cfi_def_cfa_offset 16
	.cfi_offset 6, -16
	movq	%rsp, %rbp
	.cfi_def_cfa_register 6
	pushq	%rbx
	subq	$72, %rsp
	.cfi_offset 3, -24
	movl	%edi, -68(%rbp)
	movq	%rsi, -80(%rbp)
	movq	%fs:40, %rax
	movq	%rax, -24(%rbp)
	xorl	%eax, %eax
	cmpl	$1, -68(%rbp)
	jle	.L469
	movq	-80(%rbp), %rax
	addq	$8, %rax
	movq	(%rax), %rax
	movq	%rax, %rsi
	leaq	.LC95(%rip), %rdi
	movl	$0, %eax
.LEHB48:
	call	printf@PLT
	movq	-80(%rbp), %rax
	addq	$8, %rax
	movq	(%rax), %rax
	leaq	.LC96(%rip), %rsi
	movq	%rax, %rdi
	call	fopen@PLT
	movq	%rax, yyin(%rip)
	jmp	.L470
.L469:
	leaq	.LC97(%rip), %rdi
	call	puts@PLT
	leaq	.LC96(%rip), %rsi
	leaq	.LC98(%rip), %rdi
	call	fopen@PLT
	movq	%rax, yyin(%rip)
.L470:
	movq	yyin(%rip), %rax
	testq	%rax, %rax
	jne	.L471
	leaq	.LC99(%rip), %rdi
	call	puts@PLT
	movl	$1, %ebx
	jmp	.L477
.L471:
	movq	$0, -40(%rbp)
	movq	stdout(%rip), %rax
	movq	%rax, yyout(%rip)
	call	yylex@PLT
.LEHE48:
	movl	%eax, nextToken(%rip)
.LEHB49:
	call	_Z7programv
	movq	%rax, -40(%rbp)
	movl	nextToken(%rip), %eax
	cmpl	$5000, %eax
	je	.L473
	movl	$8, %edi
	call	__cxa_allocate_exception@PLT
	leaq	.LC100(%rip), %rdx
	movq	%rdx, (%rax)
	movl	$0, %edx
	leaq	_ZTIPKc(%rip), %rsi
	movq	%rax, %rdi
	call	__cxa_throw@PLT
.LEHE49:
.L473:
	movq	_ZSt4endlIcSt11char_traitsIcEERSt13basic_ostreamIT_T0_ES6_@GOTPCREL(%rip), %rax
	movq	%rax, %rsi
	leaq	_ZSt4cout(%rip), %rdi
.LEHB50:
	call	_ZNSolsEPFRSoS_E@PLT
	leaq	.LC101(%rip), %rsi
	movq	%rax, %rdi
	call	_ZStlsISt11char_traitsIcEERSt13basic_ostreamIcT_ES5_PKc@PLT
	movq	%rax, %rdx
	movq	_ZSt4endlIcSt11char_traitsIcEERSt13basic_ostreamIT_T0_ES6_@GOTPCREL(%rip), %rax
	movq	%rax, %rsi
	movq	%rdx, %rdi
	call	_ZNSolsEPFRSoS_E@PLT
	movq	_ZSt4endlIcSt11char_traitsIcEERSt13basic_ostreamIT_T0_ES6_@GOTPCREL(%rip), %rax
	movq	%rax, %rsi
	leaq	_ZSt4cout(%rip), %rdi
	call	_ZNSolsEPFRSoS_E@PLT
	leaq	.LC102(%rip), %rsi
	movq	%rax, %rdi
	call	_ZStlsISt11char_traitsIcEERSt13basic_ostreamIcT_ES5_PKc@PLT
	movq	%rax, %rdx
	movq	_ZSt4endlIcSt11char_traitsIcEERSt13basic_ostreamIT_T0_ES6_@GOTPCREL(%rip), %rax
	movq	%rax, %rsi
	movq	%rdx, %rdi
	call	_ZNSolsEPFRSoS_E@PLT
	leaq	-56(%rbp), %rax
	movq	%rax, %rdi
	call	_ZNSt23_Rb_tree_const_iteratorINSt7__cxx1112basic_stringIcSt11char_traitsIcESaIcEEEEC1Ev
	leaq	_Z11symbolTableB5cxx11(%rip), %rdi
	call	_ZNKSt3setINSt7__cxx1112basic_stringIcSt11char_traitsIcESaIcEEESt4lessIS5_ESaIS5_EE5beginEv
	movq	%rax, -56(%rbp)
.L475:
	leaq	_Z11symbolTableB5cxx11(%rip), %rdi
	call	_ZNKSt3setINSt7__cxx1112basic_stringIcSt11char_traitsIcESaIcEEESt4lessIS5_ESaIS5_EE3endEv
	movq	%rax, -48(%rbp)
	leaq	-48(%rbp), %rdx
	leaq	-56(%rbp), %rax
	movq	%rdx, %rsi
	movq	%rax, %rdi
	call	_ZStneRKSt23_Rb_tree_const_iteratorINSt7__cxx1112basic_stringIcSt11char_traitsIcESaIcEEEES8_
	testb	%al, %al
	je	.L474
	leaq	-56(%rbp), %rax
	movq	%rax, %rdi
	call	_ZNKSt23_Rb_tree_const_iteratorINSt7__cxx1112basic_stringIcSt11char_traitsIcESaIcEEEEdeEv
	movq	%rax, %rsi
	leaq	_ZSt4cout(%rip), %rdi
	call	_ZStlsIcSt11char_traitsIcESaIcEERSt13basic_ostreamIT_T0_ES7_RKNSt7__cxx1112basic_stringIS4_S5_T1_EE@PLT
	movq	%rax, %rdx
	movq	_ZSt4endlIcSt11char_traitsIcEERSt13basic_ostreamIT_T0_ES6_@GOTPCREL(%rip), %rax
	movq	%rax, %rsi
	movq	%rdx, %rdi
	call	_ZNSolsEPFRSoS_E@PLT
	leaq	-56(%rbp), %rax
	movq	%rax, %rdi
	call	_ZNSt23_Rb_tree_const_iteratorINSt7__cxx1112basic_stringIcSt11char_traitsIcESaIcEEEEppEv
	jmp	.L475
.L474:
	movq	_ZSt4endlIcSt11char_traitsIcEERSt13basic_ostreamIT_T0_ES6_@GOTPCREL(%rip), %rax
	movq	%rax, %rsi
	leaq	_ZSt4cout(%rip), %rdi
	call	_ZNSolsEPFRSoS_E@PLT
	movq	%rax, %rdx
	movq	_ZSt4endlIcSt11char_traitsIcEERSt13basic_ostreamIT_T0_ES6_@GOTPCREL(%rip), %rax
	movq	%rax, %rsi
	movq	%rdx, %rdi
	call	_ZNSolsEPFRSoS_E@PLT
	leaq	.LC103(%rip), %rsi
	movq	%rax, %rdi
	call	_ZStlsISt11char_traitsIcEERSt13basic_ostreamIcT_ES5_PKc@PLT
	movq	%rax, %rdx
	movq	_ZSt4endlIcSt11char_traitsIcEERSt13basic_ostreamIT_T0_ES6_@GOTPCREL(%rip), %rax
	movq	%rax, %rsi
	movq	%rdx, %rdi
	call	_ZNSolsEPFRSoS_E@PLT
	movq	-40(%rbp), %rax
	movq	%rax, %rsi
	leaq	_ZSt4cout(%rip), %rdi
	call	_ZlsRSoR11ProgramNode
	movq	%rax, %rdx
	movq	_ZSt4endlIcSt11char_traitsIcEERSt13basic_ostreamIT_T0_ES6_@GOTPCREL(%rip), %rax
	movq	%rax, %rsi
	movq	%rdx, %rdi
	call	_ZNSolsEPFRSoS_E@PLT
	movq	%rax, %rdx
	movq	_ZSt4endlIcSt11char_traitsIcEERSt13basic_ostreamIT_T0_ES6_@GOTPCREL(%rip), %rax
	movq	%rax, %rsi
	movq	%rdx, %rdi
	call	_ZNSolsEPFRSoS_E@PLT
	leaq	.LC104(%rip), %rsi
	leaq	_ZSt4cout(%rip), %rdi
	call	_ZStlsISt11char_traitsIcEERSt13basic_ostreamIcT_ES5_PKc@PLT
	movq	%rax, %rdx
	movq	_ZSt4endlIcSt11char_traitsIcEERSt13basic_ostreamIT_T0_ES6_@GOTPCREL(%rip), %rax
	movq	%rax, %rsi
	movq	%rdx, %rdi
	call	_ZNSolsEPFRSoS_E@PLT
	movq	-40(%rbp), %rbx
	testq	%rbx, %rbx
	je	.L476
	movq	%rbx, %rdi
	call	_ZN11ProgramNodeD1Ev
	movl	$40, %esi
	movq	%rbx, %rdi
	call	_ZdlPvm@PLT
.L476:
	movq	$0, -40(%rbp)
	movl	$0, %ebx
.L477:
	movl	%ebx, %eax
	movq	-24(%rbp), %rcx
	xorq	%fs:40, %rcx
	je	.L481
	jmp	.L484
.L482:
	endbr64
	cmpq	$1, %rdx
	je	.L479
	movq	%rax, %rdi
	call	_Unwind_Resume@PLT
.LEHE50:
.L479:
	movq	%rax, %rdi
	call	__cxa_begin_catch@PLT
	movq	%rax, -32(%rbp)
	movq	_ZSt4endlIcSt11char_traitsIcEERSt13basic_ostreamIT_T0_ES6_@GOTPCREL(%rip), %rax
	movq	%rax, %rsi
	leaq	_ZSt4cout(%rip), %rdi
.LEHB51:
	call	_ZNSolsEPFRSoS_E@PLT
	leaq	.LC105(%rip), %rsi
	movq	%rax, %rdi
	call	_ZStlsISt11char_traitsIcEERSt13basic_ostreamIcT_ES5_PKc@PLT
	movq	%rax, %rdx
	movq	_ZSt4endlIcSt11char_traitsIcEERSt13basic_ostreamIT_T0_ES6_@GOTPCREL(%rip), %rax
	movq	%rax, %rsi
	movq	%rdx, %rdi
	call	_ZNSolsEPFRSoS_E@PLT
	leaq	.LC106(%rip), %rsi
	leaq	_ZSt4cout(%rip), %rdi
	call	_ZStlsISt11char_traitsIcEERSt13basic_ostreamIcT_ES5_PKc@PLT
	movq	%rax, %rdx
	movl	yylineno(%rip), %eax
	movl	%eax, %esi
	movq	%rdx, %rdi
	call	_ZNSolsEi@PLT
	leaq	.LC107(%rip), %rsi
	movq	%rax, %rdi
	call	_ZStlsISt11char_traitsIcEERSt13basic_ostreamIcT_ES5_PKc@PLT
	movq	%rax, %rdx
	movq	yytext(%rip), %rax
	movq	%rax, %rsi
	movq	%rdx, %rdi
	call	_ZStlsISt11char_traitsIcEERSt13basic_ostreamIcT_ES5_PKc@PLT
	leaq	.LC108(%rip), %rsi
	movq	%rax, %rdi
	call	_ZStlsISt11char_traitsIcEERSt13basic_ostreamIcT_ES5_PKc@PLT
	movq	-32(%rbp), %rax
	movq	%rax, %rsi
	leaq	_ZSt4cout(%rip), %rdi
	call	_ZStlsISt11char_traitsIcEERSt13basic_ostreamIcT_ES5_PKc@PLT
	movq	%rax, %rdx
	movq	_ZSt4endlIcSt11char_traitsIcEERSt13basic_ostreamIT_T0_ES6_@GOTPCREL(%rip), %rax
	movq	%rax, %rsi
	movq	%rdx, %rdi
	call	_ZNSolsEPFRSoS_E@PLT
.LEHE51:
	movl	$1, %ebx
	call	__cxa_end_catch@PLT
	jmp	.L477
.L483:
	endbr64
	movq	%rax, %rbx
	call	__cxa_end_catch@PLT
	movq	%rbx, %rax
	movq	%rax, %rdi
.LEHB52:
	call	_Unwind_Resume@PLT
.LEHE52:
.L484:
	call	__stack_chk_fail@PLT
.L481:
	addq	$72, %rsp
	popq	%rbx
	popq	%rbp
	.cfi_def_cfa 7, 8
	ret
	.cfi_endproc
.LFE3318:
	.section	.gcc_except_table
	.align 4
.LLSDA3318:
	.byte	0xff
	.byte	0x9b
	.uleb128 .LLSDATT3318-.LLSDATTD3318
.LLSDATTD3318:
	.byte	0x1
	.uleb128 .LLSDACSE3318-.LLSDACSB3318
.LLSDACSB3318:
	.uleb128 .LEHB48-.LFB3318
	.uleb128 .LEHE48-.LEHB48
	.uleb128 0
	.uleb128 0
	.uleb128 .LEHB49-.LFB3318
	.uleb128 .LEHE49-.LEHB49
	.uleb128 .L482-.LFB3318
	.uleb128 0x1
	.uleb128 .LEHB50-.LFB3318
	.uleb128 .LEHE50-.LEHB50
	.uleb128 0
	.uleb128 0
	.uleb128 .LEHB51-.LFB3318
	.uleb128 .LEHE51-.LEHB51
	.uleb128 .L483-.LFB3318
	.uleb128 0
	.uleb128 .LEHB52-.LFB3318
	.uleb128 .LEHE52-.LEHB52
	.uleb128 0
	.uleb128 0
.LLSDACSE3318:
	.byte	0x1
	.byte	0
	.align 4
	.long	DW.ref._ZTIPKc-.
.LLSDATT3318:
	.text
	.size	main, .-main
	.section	.text._ZSt3maxImERKT_S2_S2_,"axG",@progbits,_ZSt3maxImERKT_S2_S2_,comdat
	.weak	_ZSt3maxImERKT_S2_S2_
	.type	_ZSt3maxImERKT_S2_S2_, @function
_ZSt3maxImERKT_S2_S2_:
.LFB3555:
	.cfi_startproc
	endbr64
	pushq	%rbp
	.cfi_def_cfa_offset 16
	.cfi_offset 6, -16
	movq	%rsp, %rbp
	.cfi_def_cfa_register 6
	movq	%rdi, -8(%rbp)
	movq	%rsi, -16(%rbp)
	movq	-8(%rbp), %rax
	movq	(%rax), %rdx
	movq	-16(%rbp), %rax
	movq	(%rax), %rax
	cmpq	%rax, %rdx
	jnb	.L486
	movq	-16(%rbp), %rax
	jmp	.L487
.L486:
	movq	-8(%rbp), %rax
.L487:
	popq	%rbp
	.cfi_def_cfa 7, 8
	ret
	.cfi_endproc
.LFE3555:
	.size	_ZSt3maxImERKT_S2_S2_, .-_ZSt3maxImERKT_S2_S2_
	.section	.text._ZSt7forwardIiEOT_RNSt16remove_referenceIS0_E4typeE,"axG",@progbits,_ZSt7forwardIiEOT_RNSt16remove_referenceIS0_E4typeE,comdat
	.weak	_ZSt7forwardIiEOT_RNSt16remove_referenceIS0_E4typeE
	.type	_ZSt7forwardIiEOT_RNSt16remove_referenceIS0_E4typeE, @function
_ZSt7forwardIiEOT_RNSt16remove_referenceIS0_E4typeE:
.LFB3579:
	.cfi_startproc
	endbr64
	pushq	%rbp
	.cfi_def_cfa_offset 16
	.cfi_offset 6, -16
	movq	%rsp, %rbp
	.cfi_def_cfa_register 6
	movq	%rdi, -8(%rbp)
	movq	-8(%rbp), %rax
	popq	%rbp
	.cfi_def_cfa 7, 8
	ret
	.cfi_endproc
.LFE3579:
	.size	_ZSt7forwardIiEOT_RNSt16remove_referenceIS0_E4typeE, .-_ZSt7forwardIiEOT_RNSt16remove_referenceIS0_E4typeE
	.section	.text._ZSt7forwardIRA2_KcEOT_RNSt16remove_referenceIS3_E4typeE,"axG",@progbits,_ZSt7forwardIRA2_KcEOT_RNSt16remove_referenceIS3_E4typeE,comdat
	.weak	_ZSt7forwardIRA2_KcEOT_RNSt16remove_referenceIS3_E4typeE
	.type	_ZSt7forwardIRA2_KcEOT_RNSt16remove_referenceIS3_E4typeE, @function
_ZSt7forwardIRA2_KcEOT_RNSt16remove_referenceIS3_E4typeE:
.LFB3582:
	.cfi_startproc
	endbr64
	pushq	%rbp
	.cfi_def_cfa_offset 16
	.cfi_offset 6, -16
	movq	%rsp, %rbp
	.cfi_def_cfa_register 6
	movq	%rdi, -8(%rbp)
	movq	-8(%rbp), %rax
	popq	%rbp
	.cfi_def_cfa 7, 8
	ret
	.cfi_endproc
.LFE3582:
	.size	_ZSt7forwardIRA2_KcEOT_RNSt16remove_referenceIS3_E4typeE, .-_ZSt7forwardIRA2_KcEOT_RNSt16remove_referenceIS3_E4typeE
	.section	.text._ZSt7forwardIRA3_KcEOT_RNSt16remove_referenceIS3_E4typeE,"axG",@progbits,_ZSt7forwardIRA3_KcEOT_RNSt16remove_referenceIS3_E4typeE,comdat
	.weak	_ZSt7forwardIRA3_KcEOT_RNSt16remove_referenceIS3_E4typeE
	.type	_ZSt7forwardIRA3_KcEOT_RNSt16remove_referenceIS3_E4typeE, @function
_ZSt7forwardIRA3_KcEOT_RNSt16remove_referenceIS3_E4typeE:
.LFB3586:
	.cfi_startproc
	endbr64
	pushq	%rbp
	.cfi_def_cfa_offset 16
	.cfi_offset 6, -16
	movq	%rsp, %rbp
	.cfi_def_cfa_register 6
	movq	%rdi, -8(%rbp)
	movq	-8(%rbp), %rax
	popq	%rbp
	.cfi_def_cfa 7, 8
	ret
	.cfi_endproc
.LFE3586:
	.size	_ZSt7forwardIRA3_KcEOT_RNSt16remove_referenceIS3_E4typeE, .-_ZSt7forwardIRA3_KcEOT_RNSt16remove_referenceIS3_E4typeE
	.section	.text._ZSt7forwardIRA4_KcEOT_RNSt16remove_referenceIS3_E4typeE,"axG",@progbits,_ZSt7forwardIRA4_KcEOT_RNSt16remove_referenceIS3_E4typeE,comdat
	.weak	_ZSt7forwardIRA4_KcEOT_RNSt16remove_referenceIS3_E4typeE
	.type	_ZSt7forwardIRA4_KcEOT_RNSt16remove_referenceIS3_E4typeE, @function
_ZSt7forwardIRA4_KcEOT_RNSt16remove_referenceIS3_E4typeE:
.LFB3587:
	.cfi_startproc
	endbr64
	pushq	%rbp
	.cfi_def_cfa_offset 16
	.cfi_offset 6, -16
	movq	%rsp, %rbp
	.cfi_def_cfa_register 6
	movq	%rdi, -8(%rbp)
	movq	-8(%rbp), %rax
	popq	%rbp
	.cfi_def_cfa 7, 8
	ret
	.cfi_endproc
.LFE3587:
	.size	_ZSt7forwardIRA4_KcEOT_RNSt16remove_referenceIS3_E4typeE, .-_ZSt7forwardIRA4_KcEOT_RNSt16remove_referenceIS3_E4typeE
	.section	.text._ZNSaISt4pairIKiNSt7__cxx1112basic_stringIcSt11char_traitsIcESaIcEEEEEC2Ev,"axG",@progbits,_ZNSaISt4pairIKiNSt7__cxx1112basic_stringIcSt11char_traitsIcESaIcEEEEEC5Ev,comdat
	.align 2
	.weak	_ZNSaISt4pairIKiNSt7__cxx1112basic_stringIcSt11char_traitsIcESaIcEEEEEC2Ev
	.type	_ZNSaISt4pairIKiNSt7__cxx1112basic_stringIcSt11char_traitsIcESaIcEEEEEC2Ev, @function
_ZNSaISt4pairIKiNSt7__cxx1112basic_stringIcSt11char_traitsIcESaIcEEEEEC2Ev:
.LFB3589:
	.cfi_startproc
	endbr64
	pushq	%rbp
	.cfi_def_cfa_offset 16
	.cfi_offset 6, -16
	movq	%rsp, %rbp
	.cfi_def_cfa_register 6
	subq	$16, %rsp
	movq	%rdi, -8(%rbp)
	movq	-8(%rbp), %rax
	movq	%rax, %rdi
	call	_ZN9__gnu_cxx13new_allocatorISt4pairIKiNSt7__cxx1112basic_stringIcSt11char_traitsIcESaIcEEEEEC2Ev
	nop
	leave
	.cfi_def_cfa 7, 8
	ret
	.cfi_endproc
.LFE3589:
	.size	_ZNSaISt4pairIKiNSt7__cxx1112basic_stringIcSt11char_traitsIcESaIcEEEEEC2Ev, .-_ZNSaISt4pairIKiNSt7__cxx1112basic_stringIcSt11char_traitsIcESaIcEEEEEC2Ev
	.weak	_ZNSaISt4pairIKiNSt7__cxx1112basic_stringIcSt11char_traitsIcESaIcEEEEEC1Ev
	.set	_ZNSaISt4pairIKiNSt7__cxx1112basic_stringIcSt11char_traitsIcESaIcEEEEEC1Ev,_ZNSaISt4pairIKiNSt7__cxx1112basic_stringIcSt11char_traitsIcESaIcEEEEEC2Ev
	.section	.text._ZNSaISt4pairIKiNSt7__cxx1112basic_stringIcSt11char_traitsIcESaIcEEEEED2Ev,"axG",@progbits,_ZNSaISt4pairIKiNSt7__cxx1112basic_stringIcSt11char_traitsIcESaIcEEEEED5Ev,comdat
	.align 2
	.weak	_ZNSaISt4pairIKiNSt7__cxx1112basic_stringIcSt11char_traitsIcESaIcEEEEED2Ev
	.type	_ZNSaISt4pairIKiNSt7__cxx1112basic_stringIcSt11char_traitsIcESaIcEEEEED2Ev, @function
_ZNSaISt4pairIKiNSt7__cxx1112basic_stringIcSt11char_traitsIcESaIcEEEEED2Ev:
.LFB3592:
	.cfi_startproc
	endbr64
	pushq	%rbp
	.cfi_def_cfa_offset 16
	.cfi_offset 6, -16
	movq	%rsp, %rbp
	.cfi_def_cfa_register 6
	subq	$16, %rsp
	movq	%rdi, -8(%rbp)
	movq	-8(%rbp), %rax
	movq	%rax, %rdi
	call	_ZN9__gnu_cxx13new_allocatorISt4pairIKiNSt7__cxx1112basic_stringIcSt11char_traitsIcESaIcEEEEED2Ev
	nop
	leave
	.cfi_def_cfa 7, 8
	ret
	.cfi_endproc
.LFE3592:
	.size	_ZNSaISt4pairIKiNSt7__cxx1112basic_stringIcSt11char_traitsIcESaIcEEEEED2Ev, .-_ZNSaISt4pairIKiNSt7__cxx1112basic_stringIcSt11char_traitsIcESaIcEEEEED2Ev
	.weak	_ZNSaISt4pairIKiNSt7__cxx1112basic_stringIcSt11char_traitsIcESaIcEEEEED1Ev
	.set	_ZNSaISt4pairIKiNSt7__cxx1112basic_stringIcSt11char_traitsIcESaIcEEEEED1Ev,_ZNSaISt4pairIKiNSt7__cxx1112basic_stringIcSt11char_traitsIcESaIcEEEEED2Ev
	.section	.text._ZNSt13unordered_mapIiNSt7__cxx1112basic_stringIcSt11char_traitsIcESaIcEEESt4hashIiESt8equal_toIiESaISt4pairIKiS5_EEEC2ESt16initializer_listISC_EmRKS7_RKS9_RKSD_,"axG",@progbits,_ZNSt13unordered_mapIiNSt7__cxx1112basic_stringIcSt11char_traitsIcESaIcEEESt4hashIiESt8equal_toIiESaISt4pairIKiS5_EEEC5ESt16initializer_listISC_EmRKS7_RKS9_RKSD_,comdat
	.align 2
	.weak	_ZNSt13unordered_mapIiNSt7__cxx1112basic_stringIcSt11char_traitsIcESaIcEEESt4hashIiESt8equal_toIiESaISt4pairIKiS5_EEEC2ESt16initializer_listISC_EmRKS7_RKS9_RKSD_
	.type	_ZNSt13unordered_mapIiNSt7__cxx1112basic_stringIcSt11char_traitsIcESaIcEEESt4hashIiESt8equal_toIiESaISt4pairIKiS5_EEEC2ESt16initializer_listISC_EmRKS7_RKS9_RKSD_, @function
_ZNSt13unordered_mapIiNSt7__cxx1112basic_stringIcSt11char_traitsIcESaIcEEESt4hashIiESt8equal_toIiESaISt4pairIKiS5_EEEC2ESt16initializer_listISC_EmRKS7_RKS9_RKSD_:
.LFB3595:
	.cfi_startproc
	endbr64
	pushq	%rbp
	.cfi_def_cfa_offset 16
	.cfi_offset 6, -16
	movq	%rsp, %rbp
	.cfi_def_cfa_register 6
	subq	$48, %rsp
	movq	%rdi, -8(%rbp)
	movq	%rsi, %rax
	movq	%rdx, %rsi
	movq	%rsi, %rdx
	movq	%rax, -32(%rbp)
	movq	%rdx, -24(%rbp)
	movq	%rcx, -16(%rbp)
	movq	%r8, -40(%rbp)
	movq	%r9, -48(%rbp)
	movq	-8(%rbp), %rax
	movq	-48(%rbp), %r8
	movq	-40(%rbp), %rdi
	movq	-16(%rbp), %rcx
	movq	-32(%rbp), %rsi
	movq	-24(%rbp), %rdx
	subq	$8, %rsp
	pushq	16(%rbp)
	movq	%r8, %r9
	movq	%rdi, %r8
	movq	%rax, %rdi
	call	_ZNSt10_HashtableIiSt4pairIKiNSt7__cxx1112basic_stringIcSt11char_traitsIcESaIcEEEESaIS8_ENSt8__detail10_Select1stESt8equal_toIiESt4hashIiENSA_18_Mod_range_hashingENSA_20_Default_ranged_hashENSA_20_Prime_rehash_policyENSA_17_Hashtable_traitsILb0ELb0ELb1EEEEC1ESt16initializer_listIS8_EmRKSF_RKSD_RKS9_
	addq	$16, %rsp
	nop
	leave
	.cfi_def_cfa 7, 8
	ret
	.cfi_endproc
.LFE3595:
	.size	_ZNSt13unordered_mapIiNSt7__cxx1112basic_stringIcSt11char_traitsIcESaIcEEESt4hashIiESt8equal_toIiESaISt4pairIKiS5_EEEC2ESt16initializer_listISC_EmRKS7_RKS9_RKSD_, .-_ZNSt13unordered_mapIiNSt7__cxx1112basic_stringIcSt11char_traitsIcESaIcEEESt4hashIiESt8equal_toIiESaISt4pairIKiS5_EEEC2ESt16initializer_listISC_EmRKS7_RKS9_RKSD_
	.weak	_ZNSt13unordered_mapIiNSt7__cxx1112basic_stringIcSt11char_traitsIcESaIcEEESt4hashIiESt8equal_toIiESaISt4pairIKiS5_EEEC1ESt16initializer_listISC_EmRKS7_RKS9_RKSD_
	.set	_ZNSt13unordered_mapIiNSt7__cxx1112basic_stringIcSt11char_traitsIcESaIcEEESt4hashIiESt8equal_toIiESaISt4pairIKiS5_EEEC1ESt16initializer_listISC_EmRKS7_RKS9_RKSD_,_ZNSt13unordered_mapIiNSt7__cxx1112basic_stringIcSt11char_traitsIcESaIcEEESt4hashIiESt8equal_toIiESaISt4pairIKiS5_EEEC2ESt16initializer_listISC_EmRKS7_RKS9_RKSD_
	.section	.text._ZNSt8__detail21_Hashtable_ebo_helperILi0ESaINS_10_Hash_nodeISt4pairIKiNSt7__cxx1112basic_stringIcSt11char_traitsIcESaIcEEEELb0EEEELb1EED2Ev,"axG",@progbits,_ZNSt8__detail21_Hashtable_ebo_helperILi0ESaINS_10_Hash_nodeISt4pairIKiNSt7__cxx1112basic_stringIcSt11char_traitsIcESaIcEEEELb0EEEELb1EED5Ev,comdat
	.align 2
	.weak	_ZNSt8__detail21_Hashtable_ebo_helperILi0ESaINS_10_Hash_nodeISt4pairIKiNSt7__cxx1112basic_stringIcSt11char_traitsIcESaIcEEEELb0EEEELb1EED2Ev
	.type	_ZNSt8__detail21_Hashtable_ebo_helperILi0ESaINS_10_Hash_nodeISt4pairIKiNSt7__cxx1112basic_stringIcSt11char_traitsIcESaIcEEEELb0EEEELb1EED2Ev, @function
_ZNSt8__detail21_Hashtable_ebo_helperILi0ESaINS_10_Hash_nodeISt4pairIKiNSt7__cxx1112basic_stringIcSt11char_traitsIcESaIcEEEELb0EEEELb1EED2Ev:
.LFB3600:
	.cfi_startproc
	endbr64
	pushq	%rbp
	.cfi_def_cfa_offset 16
	.cfi_offset 6, -16
	movq	%rsp, %rbp
	.cfi_def_cfa_register 6
	subq	$16, %rsp
	movq	%rdi, -8(%rbp)
	movq	-8(%rbp), %rax
	movq	%rax, %rdi
	call	_ZNSaINSt8__detail10_Hash_nodeISt4pairIKiNSt7__cxx1112basic_stringIcSt11char_traitsIcESaIcEEEELb0EEEED2Ev
	nop
	leave
	.cfi_def_cfa 7, 8
	ret
	.cfi_endproc
.LFE3600:
	.size	_ZNSt8__detail21_Hashtable_ebo_helperILi0ESaINS_10_Hash_nodeISt4pairIKiNSt7__cxx1112basic_stringIcSt11char_traitsIcESaIcEEEELb0EEEELb1EED2Ev, .-_ZNSt8__detail21_Hashtable_ebo_helperILi0ESaINS_10_Hash_nodeISt4pairIKiNSt7__cxx1112basic_stringIcSt11char_traitsIcESaIcEEEELb0EEEELb1EED2Ev
	.weak	_ZNSt8__detail21_Hashtable_ebo_helperILi0ESaINS_10_Hash_nodeISt4pairIKiNSt7__cxx1112basic_stringIcSt11char_traitsIcESaIcEEEELb0EEEELb1EED1Ev
	.set	_ZNSt8__detail21_Hashtable_ebo_helperILi0ESaINS_10_Hash_nodeISt4pairIKiNSt7__cxx1112basic_stringIcSt11char_traitsIcESaIcEEEELb0EEEELb1EED1Ev,_ZNSt8__detail21_Hashtable_ebo_helperILi0ESaINS_10_Hash_nodeISt4pairIKiNSt7__cxx1112basic_stringIcSt11char_traitsIcESaIcEEEELb0EEEELb1EED2Ev
	.section	.text._ZNSt8__detail16_Hashtable_allocISaINS_10_Hash_nodeISt4pairIKiNSt7__cxx1112basic_stringIcSt11char_traitsIcESaIcEEEELb0EEEEED2Ev,"axG",@progbits,_ZNSt8__detail16_Hashtable_allocISaINS_10_Hash_nodeISt4pairIKiNSt7__cxx1112basic_stringIcSt11char_traitsIcESaIcEEEELb0EEEEED5Ev,comdat
	.align 2
	.weak	_ZNSt8__detail16_Hashtable_allocISaINS_10_Hash_nodeISt4pairIKiNSt7__cxx1112basic_stringIcSt11char_traitsIcESaIcEEEELb0EEEEED2Ev
	.type	_ZNSt8__detail16_Hashtable_allocISaINS_10_Hash_nodeISt4pairIKiNSt7__cxx1112basic_stringIcSt11char_traitsIcESaIcEEEELb0EEEEED2Ev, @function
_ZNSt8__detail16_Hashtable_allocISaINS_10_Hash_nodeISt4pairIKiNSt7__cxx1112basic_stringIcSt11char_traitsIcESaIcEEEELb0EEEEED2Ev:
.LFB3602:
	.cfi_startproc
	endbr64
	pushq	%rbp
	.cfi_def_cfa_offset 16
	.cfi_offset 6, -16
	movq	%rsp, %rbp
	.cfi_def_cfa_register 6
	subq	$16, %rsp
	movq	%rdi, -8(%rbp)
	movq	-8(%rbp), %rax
	movq	%rax, %rdi
	call	_ZNSt8__detail21_Hashtable_ebo_helperILi0ESaINS_10_Hash_nodeISt4pairIKiNSt7__cxx1112basic_stringIcSt11char_traitsIcESaIcEEEELb0EEEELb1EED2Ev
	nop
	leave
	.cfi_def_cfa 7, 8
	ret
	.cfi_endproc
.LFE3602:
	.size	_ZNSt8__detail16_Hashtable_allocISaINS_10_Hash_nodeISt4pairIKiNSt7__cxx1112basic_stringIcSt11char_traitsIcESaIcEEEELb0EEEEED2Ev, .-_ZNSt8__detail16_Hashtable_allocISaINS_10_Hash_nodeISt4pairIKiNSt7__cxx1112basic_stringIcSt11char_traitsIcESaIcEEEELb0EEEEED2Ev
	.weak	_ZNSt8__detail16_Hashtable_allocISaINS_10_Hash_nodeISt4pairIKiNSt7__cxx1112basic_stringIcSt11char_traitsIcESaIcEEEELb0EEEEED1Ev
	.set	_ZNSt8__detail16_Hashtable_allocISaINS_10_Hash_nodeISt4pairIKiNSt7__cxx1112basic_stringIcSt11char_traitsIcESaIcEEEELb0EEEEED1Ev,_ZNSt8__detail16_Hashtable_allocISaINS_10_Hash_nodeISt4pairIKiNSt7__cxx1112basic_stringIcSt11char_traitsIcESaIcEEEELb0EEEEED2Ev
	.section	.text._ZNSt10_HashtableIiSt4pairIKiNSt7__cxx1112basic_stringIcSt11char_traitsIcESaIcEEEESaIS8_ENSt8__detail10_Select1stESt8equal_toIiESt4hashIiENSA_18_Mod_range_hashingENSA_20_Default_ranged_hashENSA_20_Prime_rehash_policyENSA_17_Hashtable_traitsILb0ELb0ELb1EEEED2Ev,"axG",@progbits,_ZNSt10_HashtableIiSt4pairIKiNSt7__cxx1112basic_stringIcSt11char_traitsIcESaIcEEEESaIS8_ENSt8__detail10_Select1stESt8equal_toIiESt4hashIiENSA_18_Mod_range_hashingENSA_20_Default_ranged_hashENSA_20_Prime_rehash_policyENSA_17_Hashtable_traitsILb0ELb0ELb1EEEED5Ev,comdat
	.align 2
	.weak	_ZNSt10_HashtableIiSt4pairIKiNSt7__cxx1112basic_stringIcSt11char_traitsIcESaIcEEEESaIS8_ENSt8__detail10_Select1stESt8equal_toIiESt4hashIiENSA_18_Mod_range_hashingENSA_20_Default_ranged_hashENSA_20_Prime_rehash_policyENSA_17_Hashtable_traitsILb0ELb0ELb1EEEED2Ev
	.type	_ZNSt10_HashtableIiSt4pairIKiNSt7__cxx1112basic_stringIcSt11char_traitsIcESaIcEEEESaIS8_ENSt8__detail10_Select1stESt8equal_toIiESt4hashIiENSA_18_Mod_range_hashingENSA_20_Default_ranged_hashENSA_20_Prime_rehash_policyENSA_17_Hashtable_traitsILb0ELb0ELb1EEEED2Ev, @function
_ZNSt10_HashtableIiSt4pairIKiNSt7__cxx1112basic_stringIcSt11char_traitsIcESaIcEEEESaIS8_ENSt8__detail10_Select1stESt8equal_toIiESt4hashIiENSA_18_Mod_range_hashingENSA_20_Default_ranged_hashENSA_20_Prime_rehash_policyENSA_17_Hashtable_traitsILb0ELb0ELb1EEEED2Ev:
.LFB3604:
	.cfi_startproc
	.cfi_personality 0x9b,DW.ref.__gxx_personality_v0
	.cfi_lsda 0x1b,.LLSDA3604
	endbr64
	pushq	%rbp
	.cfi_def_cfa_offset 16
	.cfi_offset 6, -16
	movq	%rsp, %rbp
	.cfi_def_cfa_register 6
	subq	$16, %rsp
	movq	%rdi, -8(%rbp)
	movq	-8(%rbp), %rax
	movq	%rax, %rdi
	call	_ZNSt10_HashtableIiSt4pairIKiNSt7__cxx1112basic_stringIcSt11char_traitsIcESaIcEEEESaIS8_ENSt8__detail10_Select1stESt8equal_toIiESt4hashIiENSA_18_Mod_range_hashingENSA_20_Default_ranged_hashENSA_20_Prime_rehash_policyENSA_17_Hashtable_traitsILb0ELb0ELb1EEEE5clearEv
	movq	-8(%rbp), %rax
	movq	%rax, %rdi
	call	_ZNSt10_HashtableIiSt4pairIKiNSt7__cxx1112basic_stringIcSt11char_traitsIcESaIcEEEESaIS8_ENSt8__detail10_Select1stESt8equal_toIiESt4hashIiENSA_18_Mod_range_hashingENSA_20_Default_ranged_hashENSA_20_Prime_rehash_policyENSA_17_Hashtable_traitsILb0ELb0ELb1EEEE21_M_deallocate_bucketsEv
	movq	-8(%rbp), %rax
	movq	%rax, %rdi
	call	_ZNSt8__detail16_Hashtable_allocISaINS_10_Hash_nodeISt4pairIKiNSt7__cxx1112basic_stringIcSt11char_traitsIcESaIcEEEELb0EEEEED2Ev
	nop
	leave
	.cfi_def_cfa 7, 8
	ret
	.cfi_endproc
.LFE3604:
	.section	.gcc_except_table
.LLSDA3604:
	.byte	0xff
	.byte	0xff
	.byte	0x1
	.uleb128 .LLSDACSE3604-.LLSDACSB3604
.LLSDACSB3604:
.LLSDACSE3604:
	.section	.text._ZNSt10_HashtableIiSt4pairIKiNSt7__cxx1112basic_stringIcSt11char_traitsIcESaIcEEEESaIS8_ENSt8__detail10_Select1stESt8equal_toIiESt4hashIiENSA_18_Mod_range_hashingENSA_20_Default_ranged_hashENSA_20_Prime_rehash_policyENSA_17_Hashtable_traitsILb0ELb0ELb1EEEED2Ev,"axG",@progbits,_ZNSt10_HashtableIiSt4pairIKiNSt7__cxx1112basic_stringIcSt11char_traitsIcESaIcEEEESaIS8_ENSt8__detail10_Select1stESt8equal_toIiESt4hashIiENSA_18_Mod_range_hashingENSA_20_Default_ranged_hashENSA_20_Prime_rehash_policyENSA_17_Hashtable_traitsILb0ELb0ELb1EEEED5Ev,comdat
	.size	_ZNSt10_HashtableIiSt4pairIKiNSt7__cxx1112basic_stringIcSt11char_traitsIcESaIcEEEESaIS8_ENSt8__detail10_Select1stESt8equal_toIiESt4hashIiENSA_18_Mod_range_hashingENSA_20_Default_ranged_hashENSA_20_Prime_rehash_policyENSA_17_Hashtable_traitsILb0ELb0ELb1EEEED2Ev, .-_ZNSt10_HashtableIiSt4pairIKiNSt7__cxx1112basic_stringIcSt11char_traitsIcESaIcEEEESaIS8_ENSt8__detail10_Select1stESt8equal_toIiESt4hashIiENSA_18_Mod_range_hashingENSA_20_Default_ranged_hashENSA_20_Prime_rehash_policyENSA_17_Hashtable_traitsILb0ELb0ELb1EEEED2Ev
	.weak	_ZNSt10_HashtableIiSt4pairIKiNSt7__cxx1112basic_stringIcSt11char_traitsIcESaIcEEEESaIS8_ENSt8__detail10_Select1stESt8equal_toIiESt4hashIiENSA_18_Mod_range_hashingENSA_20_Default_ranged_hashENSA_20_Prime_rehash_policyENSA_17_Hashtable_traitsILb0ELb0ELb1EEEED1Ev
	.set	_ZNSt10_HashtableIiSt4pairIKiNSt7__cxx1112basic_stringIcSt11char_traitsIcESaIcEEEESaIS8_ENSt8__detail10_Select1stESt8equal_toIiESt4hashIiENSA_18_Mod_range_hashingENSA_20_Default_ranged_hashENSA_20_Prime_rehash_policyENSA_17_Hashtable_traitsILb0ELb0ELb1EEEED1Ev,_ZNSt10_HashtableIiSt4pairIKiNSt7__cxx1112basic_stringIcSt11char_traitsIcESaIcEEEESaIS8_ENSt8__detail10_Select1stESt8equal_toIiESt4hashIiENSA_18_Mod_range_hashingENSA_20_Default_ranged_hashENSA_20_Prime_rehash_policyENSA_17_Hashtable_traitsILb0ELb0ELb1EEEED2Ev
	.section	.text._ZNKSt6vectorIiSaIiEE4sizeEv,"axG",@progbits,_ZNKSt6vectorIiSaIiEE4sizeEv,comdat
	.align 2
	.weak	_ZNKSt6vectorIiSaIiEE4sizeEv
	.type	_ZNKSt6vectorIiSaIiEE4sizeEv, @function
_ZNKSt6vectorIiSaIiEE4sizeEv:
.LFB3614:
	.cfi_startproc
	endbr64
	pushq	%rbp
	.cfi_def_cfa_offset 16
	.cfi_offset 6, -16
	movq	%rsp, %rbp
	.cfi_def_cfa_register 6
	movq	%rdi, -8(%rbp)
	movq	-8(%rbp), %rax
	movq	8(%rax), %rdx
	movq	-8(%rbp), %rax
	movq	(%rax), %rax
	subq	%rax, %rdx
	movq	%rdx, %rax
	sarq	$2, %rax
	popq	%rbp
	.cfi_def_cfa 7, 8
	ret
	.cfi_endproc
.LFE3614:
	.size	_ZNKSt6vectorIiSaIiEE4sizeEv, .-_ZNKSt6vectorIiSaIiEE4sizeEv
	.section	.text._ZNSt6vectorIiSaIiEEixEm,"axG",@progbits,_ZNSt6vectorIiSaIiEEixEm,comdat
	.align 2
	.weak	_ZNSt6vectorIiSaIiEEixEm
	.type	_ZNSt6vectorIiSaIiEEixEm, @function
_ZNSt6vectorIiSaIiEEixEm:
.LFB3615:
	.cfi_startproc
	endbr64
	pushq	%rbp
	.cfi_def_cfa_offset 16
	.cfi_offset 6, -16
	movq	%rsp, %rbp
	.cfi_def_cfa_register 6
	movq	%rdi, -8(%rbp)
	movq	%rsi, -16(%rbp)
	movq	-8(%rbp), %rax
	movq	(%rax), %rax
	movq	-16(%rbp), %rdx
	salq	$2, %rdx
	addq	%rdx, %rax
	popq	%rbp
	.cfi_def_cfa 7, 8
	ret
	.cfi_endproc
.LFE3615:
	.size	_ZNSt6vectorIiSaIiEEixEm, .-_ZNSt6vectorIiSaIiEEixEm
	.section	.text._ZNSt6vectorIP10FactorNodeSaIS1_EEixEm,"axG",@progbits,_ZNSt6vectorIP10FactorNodeSaIS1_EEixEm,comdat
	.align 2
	.weak	_ZNSt6vectorIP10FactorNodeSaIS1_EEixEm
	.type	_ZNSt6vectorIP10FactorNodeSaIS1_EEixEm, @function
_ZNSt6vectorIP10FactorNodeSaIS1_EEixEm:
.LFB3616:
	.cfi_startproc
	endbr64
	pushq	%rbp
	.cfi_def_cfa_offset 16
	.cfi_offset 6, -16
	movq	%rsp, %rbp
	.cfi_def_cfa_register 6
	movq	%rdi, -8(%rbp)
	movq	%rsi, -16(%rbp)
	movq	-8(%rbp), %rax
	movq	(%rax), %rax
	movq	-16(%rbp), %rdx
	salq	$3, %rdx
	addq	%rdx, %rax
	popq	%rbp
	.cfi_def_cfa 7, 8
	ret
	.cfi_endproc
.LFE3616:
	.size	_ZNSt6vectorIP10FactorNodeSaIS1_EEixEm, .-_ZNSt6vectorIP10FactorNodeSaIS1_EEixEm
	.section	.text._ZNSt6vectorIiSaIiEED2Ev,"axG",@progbits,_ZNSt6vectorIiSaIiEED5Ev,comdat
	.align 2
	.weak	_ZNSt6vectorIiSaIiEED2Ev
	.type	_ZNSt6vectorIiSaIiEED2Ev, @function
_ZNSt6vectorIiSaIiEED2Ev:
.LFB3618:
	.cfi_startproc
	.cfi_personality 0x9b,DW.ref.__gxx_personality_v0
	.cfi_lsda 0x1b,.LLSDA3618
	endbr64
	pushq	%rbp
	.cfi_def_cfa_offset 16
	.cfi_offset 6, -16
	movq	%rsp, %rbp
	.cfi_def_cfa_register 6
	subq	$16, %rsp
	movq	%rdi, -8(%rbp)
	movq	-8(%rbp), %rax
	movq	%rax, %rdi
	call	_ZNSt12_Vector_baseIiSaIiEE19_M_get_Tp_allocatorEv
	movq	%rax, %rdx
	movq	-8(%rbp), %rax
	movq	8(%rax), %rcx
	movq	-8(%rbp), %rax
	movq	(%rax), %rax
	movq	%rcx, %rsi
	movq	%rax, %rdi
	call	_ZSt8_DestroyIPiiEvT_S1_RSaIT0_E
	movq	-8(%rbp), %rax
	movq	%rax, %rdi
	call	_ZNSt12_Vector_baseIiSaIiEED2Ev
	nop
	leave
	.cfi_def_cfa 7, 8
	ret
	.cfi_endproc
.LFE3618:
	.section	.gcc_except_table
.LLSDA3618:
	.byte	0xff
	.byte	0xff
	.byte	0x1
	.uleb128 .LLSDACSE3618-.LLSDACSB3618
.LLSDACSB3618:
.LLSDACSE3618:
	.section	.text._ZNSt6vectorIiSaIiEED2Ev,"axG",@progbits,_ZNSt6vectorIiSaIiEED5Ev,comdat
	.size	_ZNSt6vectorIiSaIiEED2Ev, .-_ZNSt6vectorIiSaIiEED2Ev
	.weak	_ZNSt6vectorIiSaIiEED1Ev
	.set	_ZNSt6vectorIiSaIiEED1Ev,_ZNSt6vectorIiSaIiEED2Ev
	.section	.text._ZNSt6vectorIP10FactorNodeSaIS1_EED2Ev,"axG",@progbits,_ZNSt6vectorIP10FactorNodeSaIS1_EED5Ev,comdat
	.align 2
	.weak	_ZNSt6vectorIP10FactorNodeSaIS1_EED2Ev
	.type	_ZNSt6vectorIP10FactorNodeSaIS1_EED2Ev, @function
_ZNSt6vectorIP10FactorNodeSaIS1_EED2Ev:
.LFB3621:
	.cfi_startproc
	.cfi_personality 0x9b,DW.ref.__gxx_personality_v0
	.cfi_lsda 0x1b,.LLSDA3621
	endbr64
	pushq	%rbp
	.cfi_def_cfa_offset 16
	.cfi_offset 6, -16
	movq	%rsp, %rbp
	.cfi_def_cfa_register 6
	subq	$16, %rsp
	movq	%rdi, -8(%rbp)
	movq	-8(%rbp), %rax
	movq	%rax, %rdi
	call	_ZNSt12_Vector_baseIP10FactorNodeSaIS1_EE19_M_get_Tp_allocatorEv
	movq	%rax, %rdx
	movq	-8(%rbp), %rax
	movq	8(%rax), %rcx
	movq	-8(%rbp), %rax
	movq	(%rax), %rax
	movq	%rcx, %rsi
	movq	%rax, %rdi
	call	_ZSt8_DestroyIPP10FactorNodeS1_EvT_S3_RSaIT0_E
	movq	-8(%rbp), %rax
	movq	%rax, %rdi
	call	_ZNSt12_Vector_baseIP10FactorNodeSaIS1_EED2Ev
	nop
	leave
	.cfi_def_cfa 7, 8
	ret
	.cfi_endproc
.LFE3621:
	.section	.gcc_except_table
.LLSDA3621:
	.byte	0xff
	.byte	0xff
	.byte	0x1
	.uleb128 .LLSDACSE3621-.LLSDACSB3621
.LLSDACSB3621:
.LLSDACSE3621:
	.section	.text._ZNSt6vectorIP10FactorNodeSaIS1_EED2Ev,"axG",@progbits,_ZNSt6vectorIP10FactorNodeSaIS1_EED5Ev,comdat
	.size	_ZNSt6vectorIP10FactorNodeSaIS1_EED2Ev, .-_ZNSt6vectorIP10FactorNodeSaIS1_EED2Ev
	.weak	_ZNSt6vectorIP10FactorNodeSaIS1_EED1Ev
	.set	_ZNSt6vectorIP10FactorNodeSaIS1_EED1Ev,_ZNSt6vectorIP10FactorNodeSaIS1_EED2Ev
	.section	.text._ZNSt6vectorIP8TermNodeSaIS1_EEixEm,"axG",@progbits,_ZNSt6vectorIP8TermNodeSaIS1_EEixEm,comdat
	.align 2
	.weak	_ZNSt6vectorIP8TermNodeSaIS1_EEixEm
	.type	_ZNSt6vectorIP8TermNodeSaIS1_EEixEm, @function
_ZNSt6vectorIP8TermNodeSaIS1_EEixEm:
.LFB3623:
	.cfi_startproc
	endbr64
	pushq	%rbp
	.cfi_def_cfa_offset 16
	.cfi_offset 6, -16
	movq	%rsp, %rbp
	.cfi_def_cfa_register 6
	movq	%rdi, -8(%rbp)
	movq	%rsi, -16(%rbp)
	movq	-8(%rbp), %rax
	movq	(%rax), %rax
	movq	-16(%rbp), %rdx
	salq	$3, %rdx
	addq	%rdx, %rax
	popq	%rbp
	.cfi_def_cfa 7, 8
	ret
	.cfi_endproc
.LFE3623:
	.size	_ZNSt6vectorIP8TermNodeSaIS1_EEixEm, .-_ZNSt6vectorIP8TermNodeSaIS1_EEixEm
	.section	.text._ZNSt6vectorIP8TermNodeSaIS1_EED2Ev,"axG",@progbits,_ZNSt6vectorIP8TermNodeSaIS1_EED5Ev,comdat
	.align 2
	.weak	_ZNSt6vectorIP8TermNodeSaIS1_EED2Ev
	.type	_ZNSt6vectorIP8TermNodeSaIS1_EED2Ev, @function
_ZNSt6vectorIP8TermNodeSaIS1_EED2Ev:
.LFB3625:
	.cfi_startproc
	.cfi_personality 0x9b,DW.ref.__gxx_personality_v0
	.cfi_lsda 0x1b,.LLSDA3625
	endbr64
	pushq	%rbp
	.cfi_def_cfa_offset 16
	.cfi_offset 6, -16
	movq	%rsp, %rbp
	.cfi_def_cfa_register 6
	subq	$16, %rsp
	movq	%rdi, -8(%rbp)
	movq	-8(%rbp), %rax
	movq	%rax, %rdi
	call	_ZNSt12_Vector_baseIP8TermNodeSaIS1_EE19_M_get_Tp_allocatorEv
	movq	%rax, %rdx
	movq	-8(%rbp), %rax
	movq	8(%rax), %rcx
	movq	-8(%rbp), %rax
	movq	(%rax), %rax
	movq	%rcx, %rsi
	movq	%rax, %rdi
	call	_ZSt8_DestroyIPP8TermNodeS1_EvT_S3_RSaIT0_E
	movq	-8(%rbp), %rax
	movq	%rax, %rdi
	call	_ZNSt12_Vector_baseIP8TermNodeSaIS1_EED2Ev
	nop
	leave
	.cfi_def_cfa 7, 8
	ret
	.cfi_endproc
.LFE3625:
	.section	.gcc_except_table
.LLSDA3625:
	.byte	0xff
	.byte	0xff
	.byte	0x1
	.uleb128 .LLSDACSE3625-.LLSDACSB3625
.LLSDACSB3625:
.LLSDACSE3625:
	.section	.text._ZNSt6vectorIP8TermNodeSaIS1_EED2Ev,"axG",@progbits,_ZNSt6vectorIP8TermNodeSaIS1_EED5Ev,comdat
	.size	_ZNSt6vectorIP8TermNodeSaIS1_EED2Ev, .-_ZNSt6vectorIP8TermNodeSaIS1_EED2Ev
	.weak	_ZNSt6vectorIP8TermNodeSaIS1_EED1Ev
	.set	_ZNSt6vectorIP8TermNodeSaIS1_EED1Ev,_ZNSt6vectorIP8TermNodeSaIS1_EED2Ev
	.section	.text._ZNSt13unordered_mapIiNSt7__cxx1112basic_stringIcSt11char_traitsIcESaIcEEESt4hashIiESt8equal_toIiESaISt4pairIKiS5_EEEixERSB_,"axG",@progbits,_ZNSt13unordered_mapIiNSt7__cxx1112basic_stringIcSt11char_traitsIcESaIcEEESt4hashIiESt8equal_toIiESaISt4pairIKiS5_EEEixERSB_,comdat
	.align 2
	.weak	_ZNSt13unordered_mapIiNSt7__cxx1112basic_stringIcSt11char_traitsIcESaIcEEESt4hashIiESt8equal_toIiESaISt4pairIKiS5_EEEixERSB_
	.type	_ZNSt13unordered_mapIiNSt7__cxx1112basic_stringIcSt11char_traitsIcESaIcEEESt4hashIiESt8equal_toIiESaISt4pairIKiS5_EEEixERSB_, @function
_ZNSt13unordered_mapIiNSt7__cxx1112basic_stringIcSt11char_traitsIcESaIcEEESt4hashIiESt8equal_toIiESaISt4pairIKiS5_EEEixERSB_:
.LFB3627:
	.cfi_startproc
	endbr64
	pushq	%rbp
	.cfi_def_cfa_offset 16
	.cfi_offset 6, -16
	movq	%rsp, %rbp
	.cfi_def_cfa_register 6
	subq	$16, %rsp
	movq	%rdi, -8(%rbp)
	movq	%rsi, -16(%rbp)
	movq	-8(%rbp), %rax
	movq	-16(%rbp), %rdx
	movq	%rdx, %rsi
	movq	%rax, %rdi
	call	_ZNSt8__detail9_Map_baseIiSt4pairIKiNSt7__cxx1112basic_stringIcSt11char_traitsIcESaIcEEEESaIS9_ENS_10_Select1stESt8equal_toIiESt4hashIiENS_18_Mod_range_hashingENS_20_Default_ranged_hashENS_20_Prime_rehash_policyENS_17_Hashtable_traitsILb0ELb0ELb1EEELb1EEixERS2_
	leave
	.cfi_def_cfa 7, 8
	ret
	.cfi_endproc
.LFE3627:
	.size	_ZNSt13unordered_mapIiNSt7__cxx1112basic_stringIcSt11char_traitsIcESaIcEEESt4hashIiESt8equal_toIiESaISt4pairIKiS5_EEEixERSB_, .-_ZNSt13unordered_mapIiNSt7__cxx1112basic_stringIcSt11char_traitsIcESaIcEEESt4hashIiESt8equal_toIiESaISt4pairIKiS5_EEEixERSB_
	.section	.text._ZNSt6vectorIP14SimpleExprNodeSaIS1_EEixEm,"axG",@progbits,_ZNSt6vectorIP14SimpleExprNodeSaIS1_EEixEm,comdat
	.align 2
	.weak	_ZNSt6vectorIP14SimpleExprNodeSaIS1_EEixEm
	.type	_ZNSt6vectorIP14SimpleExprNodeSaIS1_EEixEm, @function
_ZNSt6vectorIP14SimpleExprNodeSaIS1_EEixEm:
.LFB3628:
	.cfi_startproc
	endbr64
	pushq	%rbp
	.cfi_def_cfa_offset 16
	.cfi_offset 6, -16
	movq	%rsp, %rbp
	.cfi_def_cfa_register 6
	movq	%rdi, -8(%rbp)
	movq	%rsi, -16(%rbp)
	movq	-8(%rbp), %rax
	movq	(%rax), %rax
	movq	-16(%rbp), %rdx
	salq	$3, %rdx
	addq	%rdx, %rax
	popq	%rbp
	.cfi_def_cfa 7, 8
	ret
	.cfi_endproc
.LFE3628:
	.size	_ZNSt6vectorIP14SimpleExprNodeSaIS1_EEixEm, .-_ZNSt6vectorIP14SimpleExprNodeSaIS1_EEixEm
	.section	.text._ZNSt6vectorIP14SimpleExprNodeSaIS1_EED2Ev,"axG",@progbits,_ZNSt6vectorIP14SimpleExprNodeSaIS1_EED5Ev,comdat
	.align 2
	.weak	_ZNSt6vectorIP14SimpleExprNodeSaIS1_EED2Ev
	.type	_ZNSt6vectorIP14SimpleExprNodeSaIS1_EED2Ev, @function
_ZNSt6vectorIP14SimpleExprNodeSaIS1_EED2Ev:
.LFB3630:
	.cfi_startproc
	.cfi_personality 0x9b,DW.ref.__gxx_personality_v0
	.cfi_lsda 0x1b,.LLSDA3630
	endbr64
	pushq	%rbp
	.cfi_def_cfa_offset 16
	.cfi_offset 6, -16
	movq	%rsp, %rbp
	.cfi_def_cfa_register 6
	subq	$16, %rsp
	movq	%rdi, -8(%rbp)
	movq	-8(%rbp), %rax
	movq	%rax, %rdi
	call	_ZNSt12_Vector_baseIP14SimpleExprNodeSaIS1_EE19_M_get_Tp_allocatorEv
	movq	%rax, %rdx
	movq	-8(%rbp), %rax
	movq	8(%rax), %rcx
	movq	-8(%rbp), %rax
	movq	(%rax), %rax
	movq	%rcx, %rsi
	movq	%rax, %rdi
	call	_ZSt8_DestroyIPP14SimpleExprNodeS1_EvT_S3_RSaIT0_E
	movq	-8(%rbp), %rax
	movq	%rax, %rdi
	call	_ZNSt12_Vector_baseIP14SimpleExprNodeSaIS1_EED2Ev
	nop
	leave
	.cfi_def_cfa 7, 8
	ret
	.cfi_endproc
.LFE3630:
	.section	.gcc_except_table
.LLSDA3630:
	.byte	0xff
	.byte	0xff
	.byte	0x1
	.uleb128 .LLSDACSE3630-.LLSDACSB3630
.LLSDACSB3630:
.LLSDACSE3630:
	.section	.text._ZNSt6vectorIP14SimpleExprNodeSaIS1_EED2Ev,"axG",@progbits,_ZNSt6vectorIP14SimpleExprNodeSaIS1_EED5Ev,comdat
	.size	_ZNSt6vectorIP14SimpleExprNodeSaIS1_EED2Ev, .-_ZNSt6vectorIP14SimpleExprNodeSaIS1_EED2Ev
	.weak	_ZNSt6vectorIP14SimpleExprNodeSaIS1_EED1Ev
	.set	_ZNSt6vectorIP14SimpleExprNodeSaIS1_EED1Ev,_ZNSt6vectorIP14SimpleExprNodeSaIS1_EED2Ev
	.section	.text._ZNSt6vectorIP13StatementNodeSaIS1_EED2Ev,"axG",@progbits,_ZNSt6vectorIP13StatementNodeSaIS1_EED5Ev,comdat
	.align 2
	.weak	_ZNSt6vectorIP13StatementNodeSaIS1_EED2Ev
	.type	_ZNSt6vectorIP13StatementNodeSaIS1_EED2Ev, @function
_ZNSt6vectorIP13StatementNodeSaIS1_EED2Ev:
.LFB3633:
	.cfi_startproc
	.cfi_personality 0x9b,DW.ref.__gxx_personality_v0
	.cfi_lsda 0x1b,.LLSDA3633
	endbr64
	pushq	%rbp
	.cfi_def_cfa_offset 16
	.cfi_offset 6, -16
	movq	%rsp, %rbp
	.cfi_def_cfa_register 6
	subq	$16, %rsp
	movq	%rdi, -8(%rbp)
	movq	-8(%rbp), %rax
	movq	%rax, %rdi
	call	_ZNSt12_Vector_baseIP13StatementNodeSaIS1_EE19_M_get_Tp_allocatorEv
	movq	%rax, %rdx
	movq	-8(%rbp), %rax
	movq	8(%rax), %rcx
	movq	-8(%rbp), %rax
	movq	(%rax), %rax
	movq	%rcx, %rsi
	movq	%rax, %rdi
	call	_ZSt8_DestroyIPP13StatementNodeS1_EvT_S3_RSaIT0_E
	movq	-8(%rbp), %rax
	movq	%rax, %rdi
	call	_ZNSt12_Vector_baseIP13StatementNodeSaIS1_EED2Ev
	nop
	leave
	.cfi_def_cfa 7, 8
	ret
	.cfi_endproc
.LFE3633:
	.section	.gcc_except_table
.LLSDA3633:
	.byte	0xff
	.byte	0xff
	.byte	0x1
	.uleb128 .LLSDACSE3633-.LLSDACSB3633
.LLSDACSB3633:
.LLSDACSE3633:
	.section	.text._ZNSt6vectorIP13StatementNodeSaIS1_EED2Ev,"axG",@progbits,_ZNSt6vectorIP13StatementNodeSaIS1_EED5Ev,comdat
	.size	_ZNSt6vectorIP13StatementNodeSaIS1_EED2Ev, .-_ZNSt6vectorIP13StatementNodeSaIS1_EED2Ev
	.weak	_ZNSt6vectorIP13StatementNodeSaIS1_EED1Ev
	.set	_ZNSt6vectorIP13StatementNodeSaIS1_EED1Ev,_ZNSt6vectorIP13StatementNodeSaIS1_EED2Ev
	.section	.text._ZNKSt6vectorIP13StatementNodeSaIS1_EE4sizeEv,"axG",@progbits,_ZNKSt6vectorIP13StatementNodeSaIS1_EE4sizeEv,comdat
	.align 2
	.weak	_ZNKSt6vectorIP13StatementNodeSaIS1_EE4sizeEv
	.type	_ZNKSt6vectorIP13StatementNodeSaIS1_EE4sizeEv, @function
_ZNKSt6vectorIP13StatementNodeSaIS1_EE4sizeEv:
.LFB3635:
	.cfi_startproc
	endbr64
	pushq	%rbp
	.cfi_def_cfa_offset 16
	.cfi_offset 6, -16
	movq	%rsp, %rbp
	.cfi_def_cfa_register 6
	movq	%rdi, -8(%rbp)
	movq	-8(%rbp), %rax
	movq	8(%rax), %rdx
	movq	-8(%rbp), %rax
	movq	(%rax), %rax
	subq	%rax, %rdx
	movq	%rdx, %rax
	sarq	$3, %rax
	popq	%rbp
	.cfi_def_cfa 7, 8
	ret
	.cfi_endproc
.LFE3635:
	.size	_ZNKSt6vectorIP13StatementNodeSaIS1_EE4sizeEv, .-_ZNKSt6vectorIP13StatementNodeSaIS1_EE4sizeEv
	.section	.text._ZNSt6vectorIP13StatementNodeSaIS1_EEixEm,"axG",@progbits,_ZNSt6vectorIP13StatementNodeSaIS1_EEixEm,comdat
	.align 2
	.weak	_ZNSt6vectorIP13StatementNodeSaIS1_EEixEm
	.type	_ZNSt6vectorIP13StatementNodeSaIS1_EEixEm, @function
_ZNSt6vectorIP13StatementNodeSaIS1_EEixEm:
.LFB3636:
	.cfi_startproc
	endbr64
	pushq	%rbp
	.cfi_def_cfa_offset 16
	.cfi_offset 6, -16
	movq	%rsp, %rbp
	.cfi_def_cfa_register 6
	movq	%rdi, -8(%rbp)
	movq	%rsi, -16(%rbp)
	movq	-8(%rbp), %rax
	movq	(%rax), %rax
	movq	-16(%rbp), %rdx
	salq	$3, %rdx
	addq	%rdx, %rax
	popq	%rbp
	.cfi_def_cfa 7, 8
	ret
	.cfi_endproc
.LFE3636:
	.size	_ZNSt6vectorIP13StatementNodeSaIS1_EEixEm, .-_ZNSt6vectorIP13StatementNodeSaIS1_EEixEm
	.section	.text._ZNSt6vectorIP13StatementNodeSaIS1_EE2atEm,"axG",@progbits,_ZNSt6vectorIP13StatementNodeSaIS1_EE2atEm,comdat
	.align 2
	.weak	_ZNSt6vectorIP13StatementNodeSaIS1_EE2atEm
	.type	_ZNSt6vectorIP13StatementNodeSaIS1_EE2atEm, @function
_ZNSt6vectorIP13StatementNodeSaIS1_EE2atEm:
.LFB3638:
	.cfi_startproc
	endbr64
	pushq	%rbp
	.cfi_def_cfa_offset 16
	.cfi_offset 6, -16
	movq	%rsp, %rbp
	.cfi_def_cfa_register 6
	subq	$16, %rsp
	movq	%rdi, -8(%rbp)
	movq	%rsi, -16(%rbp)
	movq	-16(%rbp), %rdx
	movq	-8(%rbp), %rax
	movq	%rdx, %rsi
	movq	%rax, %rdi
	call	_ZNKSt6vectorIP13StatementNodeSaIS1_EE14_M_range_checkEm
	movq	-16(%rbp), %rdx
	movq	-8(%rbp), %rax
	movq	%rdx, %rsi
	movq	%rax, %rdi
	call	_ZNSt6vectorIP13StatementNodeSaIS1_EEixEm
	leave
	.cfi_def_cfa 7, 8
	ret
	.cfi_endproc
.LFE3638:
	.size	_ZNSt6vectorIP13StatementNodeSaIS1_EE2atEm, .-_ZNSt6vectorIP13StatementNodeSaIS1_EE2atEm
	.section	.text._ZNSt6vectorIP12CompoundNodeSaIS1_EED2Ev,"axG",@progbits,_ZNSt6vectorIP12CompoundNodeSaIS1_EED5Ev,comdat
	.align 2
	.weak	_ZNSt6vectorIP12CompoundNodeSaIS1_EED2Ev
	.type	_ZNSt6vectorIP12CompoundNodeSaIS1_EED2Ev, @function
_ZNSt6vectorIP12CompoundNodeSaIS1_EED2Ev:
.LFB3640:
	.cfi_startproc
	.cfi_personality 0x9b,DW.ref.__gxx_personality_v0
	.cfi_lsda 0x1b,.LLSDA3640
	endbr64
	pushq	%rbp
	.cfi_def_cfa_offset 16
	.cfi_offset 6, -16
	movq	%rsp, %rbp
	.cfi_def_cfa_register 6
	subq	$16, %rsp
	movq	%rdi, -8(%rbp)
	movq	-8(%rbp), %rax
	movq	%rax, %rdi
	call	_ZNSt12_Vector_baseIP12CompoundNodeSaIS1_EE19_M_get_Tp_allocatorEv
	movq	%rax, %rdx
	movq	-8(%rbp), %rax
	movq	8(%rax), %rcx
	movq	-8(%rbp), %rax
	movq	(%rax), %rax
	movq	%rcx, %rsi
	movq	%rax, %rdi
	call	_ZSt8_DestroyIPP12CompoundNodeS1_EvT_S3_RSaIT0_E
	movq	-8(%rbp), %rax
	movq	%rax, %rdi
	call	_ZNSt12_Vector_baseIP12CompoundNodeSaIS1_EED2Ev
	nop
	leave
	.cfi_def_cfa 7, 8
	ret
	.cfi_endproc
.LFE3640:
	.section	.gcc_except_table
.LLSDA3640:
	.byte	0xff
	.byte	0xff
	.byte	0x1
	.uleb128 .LLSDACSE3640-.LLSDACSB3640
.LLSDACSB3640:
.LLSDACSE3640:
	.section	.text._ZNSt6vectorIP12CompoundNodeSaIS1_EED2Ev,"axG",@progbits,_ZNSt6vectorIP12CompoundNodeSaIS1_EED5Ev,comdat
	.size	_ZNSt6vectorIP12CompoundNodeSaIS1_EED2Ev, .-_ZNSt6vectorIP12CompoundNodeSaIS1_EED2Ev
	.weak	_ZNSt6vectorIP12CompoundNodeSaIS1_EED1Ev
	.set	_ZNSt6vectorIP12CompoundNodeSaIS1_EED1Ev,_ZNSt6vectorIP12CompoundNodeSaIS1_EED2Ev
	.section	.text._ZNKSt6vectorIP12CompoundNodeSaIS1_EE4sizeEv,"axG",@progbits,_ZNKSt6vectorIP12CompoundNodeSaIS1_EE4sizeEv,comdat
	.align 2
	.weak	_ZNKSt6vectorIP12CompoundNodeSaIS1_EE4sizeEv
	.type	_ZNKSt6vectorIP12CompoundNodeSaIS1_EE4sizeEv, @function
_ZNKSt6vectorIP12CompoundNodeSaIS1_EE4sizeEv:
.LFB3642:
	.cfi_startproc
	endbr64
	pushq	%rbp
	.cfi_def_cfa_offset 16
	.cfi_offset 6, -16
	movq	%rsp, %rbp
	.cfi_def_cfa_register 6
	movq	%rdi, -8(%rbp)
	movq	-8(%rbp), %rax
	movq	8(%rax), %rdx
	movq	-8(%rbp), %rax
	movq	(%rax), %rax
	subq	%rax, %rdx
	movq	%rdx, %rax
	sarq	$3, %rax
	popq	%rbp
	.cfi_def_cfa 7, 8
	ret
	.cfi_endproc
.LFE3642:
	.size	_ZNKSt6vectorIP12CompoundNodeSaIS1_EE4sizeEv, .-_ZNKSt6vectorIP12CompoundNodeSaIS1_EE4sizeEv
	.section	.text._ZNSt6vectorIP12CompoundNodeSaIS1_EEixEm,"axG",@progbits,_ZNSt6vectorIP12CompoundNodeSaIS1_EEixEm,comdat
	.align 2
	.weak	_ZNSt6vectorIP12CompoundNodeSaIS1_EEixEm
	.type	_ZNSt6vectorIP12CompoundNodeSaIS1_EEixEm, @function
_ZNSt6vectorIP12CompoundNodeSaIS1_EEixEm:
.LFB3643:
	.cfi_startproc
	endbr64
	pushq	%rbp
	.cfi_def_cfa_offset 16
	.cfi_offset 6, -16
	movq	%rsp, %rbp
	.cfi_def_cfa_register 6
	movq	%rdi, -8(%rbp)
	movq	%rsi, -16(%rbp)
	movq	-8(%rbp), %rax
	movq	(%rax), %rax
	movq	-16(%rbp), %rdx
	salq	$3, %rdx
	addq	%rdx, %rax
	popq	%rbp
	.cfi_def_cfa 7, 8
	ret
	.cfi_endproc
.LFE3643:
	.size	_ZNSt6vectorIP12CompoundNodeSaIS1_EEixEm, .-_ZNSt6vectorIP12CompoundNodeSaIS1_EEixEm
	.section	.text._ZNSt6vectorIP9BlockNodeSaIS1_EED2Ev,"axG",@progbits,_ZNSt6vectorIP9BlockNodeSaIS1_EED5Ev,comdat
	.align 2
	.weak	_ZNSt6vectorIP9BlockNodeSaIS1_EED2Ev
	.type	_ZNSt6vectorIP9BlockNodeSaIS1_EED2Ev, @function
_ZNSt6vectorIP9BlockNodeSaIS1_EED2Ev:
.LFB3645:
	.cfi_startproc
	.cfi_personality 0x9b,DW.ref.__gxx_personality_v0
	.cfi_lsda 0x1b,.LLSDA3645
	endbr64
	pushq	%rbp
	.cfi_def_cfa_offset 16
	.cfi_offset 6, -16
	movq	%rsp, %rbp
	.cfi_def_cfa_register 6
	subq	$16, %rsp
	movq	%rdi, -8(%rbp)
	movq	-8(%rbp), %rax
	movq	%rax, %rdi
	call	_ZNSt12_Vector_baseIP9BlockNodeSaIS1_EE19_M_get_Tp_allocatorEv
	movq	%rax, %rdx
	movq	-8(%rbp), %rax
	movq	8(%rax), %rcx
	movq	-8(%rbp), %rax
	movq	(%rax), %rax
	movq	%rcx, %rsi
	movq	%rax, %rdi
	call	_ZSt8_DestroyIPP9BlockNodeS1_EvT_S3_RSaIT0_E
	movq	-8(%rbp), %rax
	movq	%rax, %rdi
	call	_ZNSt12_Vector_baseIP9BlockNodeSaIS1_EED2Ev
	nop
	leave
	.cfi_def_cfa 7, 8
	ret
	.cfi_endproc
.LFE3645:
	.section	.gcc_except_table
.LLSDA3645:
	.byte	0xff
	.byte	0xff
	.byte	0x1
	.uleb128 .LLSDACSE3645-.LLSDACSB3645
.LLSDACSB3645:
.LLSDACSE3645:
	.section	.text._ZNSt6vectorIP9BlockNodeSaIS1_EED2Ev,"axG",@progbits,_ZNSt6vectorIP9BlockNodeSaIS1_EED5Ev,comdat
	.size	_ZNSt6vectorIP9BlockNodeSaIS1_EED2Ev, .-_ZNSt6vectorIP9BlockNodeSaIS1_EED2Ev
	.weak	_ZNSt6vectorIP9BlockNodeSaIS1_EED1Ev
	.set	_ZNSt6vectorIP9BlockNodeSaIS1_EED1Ev,_ZNSt6vectorIP9BlockNodeSaIS1_EED2Ev
	.section	.text._ZNKSt6vectorIP9BlockNodeSaIS1_EE4sizeEv,"axG",@progbits,_ZNKSt6vectorIP9BlockNodeSaIS1_EE4sizeEv,comdat
	.align 2
	.weak	_ZNKSt6vectorIP9BlockNodeSaIS1_EE4sizeEv
	.type	_ZNKSt6vectorIP9BlockNodeSaIS1_EE4sizeEv, @function
_ZNKSt6vectorIP9BlockNodeSaIS1_EE4sizeEv:
.LFB3647:
	.cfi_startproc
	endbr64
	pushq	%rbp
	.cfi_def_cfa_offset 16
	.cfi_offset 6, -16
	movq	%rsp, %rbp
	.cfi_def_cfa_register 6
	movq	%rdi, -8(%rbp)
	movq	-8(%rbp), %rax
	movq	8(%rax), %rdx
	movq	-8(%rbp), %rax
	movq	(%rax), %rax
	subq	%rax, %rdx
	movq	%rdx, %rax
	sarq	$3, %rax
	popq	%rbp
	.cfi_def_cfa 7, 8
	ret
	.cfi_endproc
.LFE3647:
	.size	_ZNKSt6vectorIP9BlockNodeSaIS1_EE4sizeEv, .-_ZNKSt6vectorIP9BlockNodeSaIS1_EE4sizeEv
	.section	.text._ZNSt6vectorIP9BlockNodeSaIS1_EEixEm,"axG",@progbits,_ZNSt6vectorIP9BlockNodeSaIS1_EEixEm,comdat
	.align 2
	.weak	_ZNSt6vectorIP9BlockNodeSaIS1_EEixEm
	.type	_ZNSt6vectorIP9BlockNodeSaIS1_EEixEm, @function
_ZNSt6vectorIP9BlockNodeSaIS1_EEixEm:
.LFB3648:
	.cfi_startproc
	endbr64
	pushq	%rbp
	.cfi_def_cfa_offset 16
	.cfi_offset 6, -16
	movq	%rsp, %rbp
	.cfi_def_cfa_register 6
	movq	%rdi, -8(%rbp)
	movq	%rsi, -16(%rbp)
	movq	-8(%rbp), %rax
	movq	(%rax), %rax
	movq	-16(%rbp), %rdx
	salq	$3, %rdx
	addq	%rdx, %rax
	popq	%rbp
	.cfi_def_cfa 7, 8
	ret
	.cfi_endproc
.LFE3648:
	.size	_ZNSt6vectorIP9BlockNodeSaIS1_EEixEm, .-_ZNSt6vectorIP9BlockNodeSaIS1_EEixEm
	.section	.text._ZNSt12_Vector_baseIP9BlockNodeSaIS1_EE12_Vector_implC2Ev,"axG",@progbits,_ZNSt12_Vector_baseIP9BlockNodeSaIS1_EE12_Vector_implC5Ev,comdat
	.align 2
	.weak	_ZNSt12_Vector_baseIP9BlockNodeSaIS1_EE12_Vector_implC2Ev
	.type	_ZNSt12_Vector_baseIP9BlockNodeSaIS1_EE12_Vector_implC2Ev, @function
_ZNSt12_Vector_baseIP9BlockNodeSaIS1_EE12_Vector_implC2Ev:
.LFB3650:
	.cfi_startproc
	endbr64
	pushq	%rbp
	.cfi_def_cfa_offset 16
	.cfi_offset 6, -16
	movq	%rsp, %rbp
	.cfi_def_cfa_register 6
	subq	$16, %rsp
	movq	%rdi, -8(%rbp)
	movq	-8(%rbp), %rax
	movq	%rax, %rdi
	call	_ZNSaIP9BlockNodeEC2Ev
	movq	-8(%rbp), %rax
	movq	%rax, %rdi
	call	_ZNSt12_Vector_baseIP9BlockNodeSaIS1_EE17_Vector_impl_dataC2Ev
	nop
	leave
	.cfi_def_cfa 7, 8
	ret
	.cfi_endproc
.LFE3650:
	.size	_ZNSt12_Vector_baseIP9BlockNodeSaIS1_EE12_Vector_implC2Ev, .-_ZNSt12_Vector_baseIP9BlockNodeSaIS1_EE12_Vector_implC2Ev
	.weak	_ZNSt12_Vector_baseIP9BlockNodeSaIS1_EE12_Vector_implC1Ev
	.set	_ZNSt12_Vector_baseIP9BlockNodeSaIS1_EE12_Vector_implC1Ev,_ZNSt12_Vector_baseIP9BlockNodeSaIS1_EE12_Vector_implC2Ev
	.section	.text._ZNSaIP9BlockNodeED2Ev,"axG",@progbits,_ZNSaIP9BlockNodeED5Ev,comdat
	.align 2
	.weak	_ZNSaIP9BlockNodeED2Ev
	.type	_ZNSaIP9BlockNodeED2Ev, @function
_ZNSaIP9BlockNodeED2Ev:
.LFB3653:
	.cfi_startproc
	endbr64
	pushq	%rbp
	.cfi_def_cfa_offset 16
	.cfi_offset 6, -16
	movq	%rsp, %rbp
	.cfi_def_cfa_register 6
	subq	$16, %rsp
	movq	%rdi, -8(%rbp)
	movq	-8(%rbp), %rax
	movq	%rax, %rdi
	call	_ZN9__gnu_cxx13new_allocatorIP9BlockNodeED2Ev
	nop
	leave
	.cfi_def_cfa 7, 8
	ret
	.cfi_endproc
.LFE3653:
	.size	_ZNSaIP9BlockNodeED2Ev, .-_ZNSaIP9BlockNodeED2Ev
	.weak	_ZNSaIP9BlockNodeED1Ev
	.set	_ZNSaIP9BlockNodeED1Ev,_ZNSaIP9BlockNodeED2Ev
	.section	.text._ZNSt12_Vector_baseIP9BlockNodeSaIS1_EED2Ev,"axG",@progbits,_ZNSt12_Vector_baseIP9BlockNodeSaIS1_EED5Ev,comdat
	.align 2
	.weak	_ZNSt12_Vector_baseIP9BlockNodeSaIS1_EED2Ev
	.type	_ZNSt12_Vector_baseIP9BlockNodeSaIS1_EED2Ev, @function
_ZNSt12_Vector_baseIP9BlockNodeSaIS1_EED2Ev:
.LFB3656:
	.cfi_startproc
	.cfi_personality 0x9b,DW.ref.__gxx_personality_v0
	.cfi_lsda 0x1b,.LLSDA3656
	endbr64
	pushq	%rbp
	.cfi_def_cfa_offset 16
	.cfi_offset 6, -16
	movq	%rsp, %rbp
	.cfi_def_cfa_register 6
	subq	$16, %rsp
	movq	%rdi, -8(%rbp)
	movq	-8(%rbp), %rax
	movq	16(%rax), %rdx
	movq	-8(%rbp), %rax
	movq	(%rax), %rax
	subq	%rax, %rdx
	movq	%rdx, %rax
	sarq	$3, %rax
	movq	%rax, %rdx
	movq	-8(%rbp), %rax
	movq	(%rax), %rcx
	movq	-8(%rbp), %rax
	movq	%rcx, %rsi
	movq	%rax, %rdi
	call	_ZNSt12_Vector_baseIP9BlockNodeSaIS1_EE13_M_deallocateEPS1_m
	movq	-8(%rbp), %rax
	movq	%rax, %rdi
	call	_ZNSt12_Vector_baseIP9BlockNodeSaIS1_EE12_Vector_implD1Ev
	nop
	leave
	.cfi_def_cfa 7, 8
	ret
	.cfi_endproc
.LFE3656:
	.section	.gcc_except_table
.LLSDA3656:
	.byte	0xff
	.byte	0xff
	.byte	0x1
	.uleb128 .LLSDACSE3656-.LLSDACSB3656
.LLSDACSB3656:
.LLSDACSE3656:
	.section	.text._ZNSt12_Vector_baseIP9BlockNodeSaIS1_EED2Ev,"axG",@progbits,_ZNSt12_Vector_baseIP9BlockNodeSaIS1_EED5Ev,comdat
	.size	_ZNSt12_Vector_baseIP9BlockNodeSaIS1_EED2Ev, .-_ZNSt12_Vector_baseIP9BlockNodeSaIS1_EED2Ev
	.weak	_ZNSt12_Vector_baseIP9BlockNodeSaIS1_EED1Ev
	.set	_ZNSt12_Vector_baseIP9BlockNodeSaIS1_EED1Ev,_ZNSt12_Vector_baseIP9BlockNodeSaIS1_EED2Ev
	.section	.text._ZNSt12_Vector_baseIP12CompoundNodeSaIS1_EE12_Vector_implC2Ev,"axG",@progbits,_ZNSt12_Vector_baseIP12CompoundNodeSaIS1_EE12_Vector_implC5Ev,comdat
	.align 2
	.weak	_ZNSt12_Vector_baseIP12CompoundNodeSaIS1_EE12_Vector_implC2Ev
	.type	_ZNSt12_Vector_baseIP12CompoundNodeSaIS1_EE12_Vector_implC2Ev, @function
_ZNSt12_Vector_baseIP12CompoundNodeSaIS1_EE12_Vector_implC2Ev:
.LFB3659:
	.cfi_startproc
	endbr64
	pushq	%rbp
	.cfi_def_cfa_offset 16
	.cfi_offset 6, -16
	movq	%rsp, %rbp
	.cfi_def_cfa_register 6
	subq	$16, %rsp
	movq	%rdi, -8(%rbp)
	movq	-8(%rbp), %rax
	movq	%rax, %rdi
	call	_ZNSaIP12CompoundNodeEC2Ev
	movq	-8(%rbp), %rax
	movq	%rax, %rdi
	call	_ZNSt12_Vector_baseIP12CompoundNodeSaIS1_EE17_Vector_impl_dataC2Ev
	nop
	leave
	.cfi_def_cfa 7, 8
	ret
	.cfi_endproc
.LFE3659:
	.size	_ZNSt12_Vector_baseIP12CompoundNodeSaIS1_EE12_Vector_implC2Ev, .-_ZNSt12_Vector_baseIP12CompoundNodeSaIS1_EE12_Vector_implC2Ev
	.weak	_ZNSt12_Vector_baseIP12CompoundNodeSaIS1_EE12_Vector_implC1Ev
	.set	_ZNSt12_Vector_baseIP12CompoundNodeSaIS1_EE12_Vector_implC1Ev,_ZNSt12_Vector_baseIP12CompoundNodeSaIS1_EE12_Vector_implC2Ev
	.section	.text._ZNSaIP12CompoundNodeED2Ev,"axG",@progbits,_ZNSaIP12CompoundNodeED5Ev,comdat
	.align 2
	.weak	_ZNSaIP12CompoundNodeED2Ev
	.type	_ZNSaIP12CompoundNodeED2Ev, @function
_ZNSaIP12CompoundNodeED2Ev:
.LFB3662:
	.cfi_startproc
	endbr64
	pushq	%rbp
	.cfi_def_cfa_offset 16
	.cfi_offset 6, -16
	movq	%rsp, %rbp
	.cfi_def_cfa_register 6
	subq	$16, %rsp
	movq	%rdi, -8(%rbp)
	movq	-8(%rbp), %rax
	movq	%rax, %rdi
	call	_ZN9__gnu_cxx13new_allocatorIP12CompoundNodeED2Ev
	nop
	leave
	.cfi_def_cfa 7, 8
	ret
	.cfi_endproc
.LFE3662:
	.size	_ZNSaIP12CompoundNodeED2Ev, .-_ZNSaIP12CompoundNodeED2Ev
	.weak	_ZNSaIP12CompoundNodeED1Ev
	.set	_ZNSaIP12CompoundNodeED1Ev,_ZNSaIP12CompoundNodeED2Ev
	.section	.text._ZNSt12_Vector_baseIP12CompoundNodeSaIS1_EED2Ev,"axG",@progbits,_ZNSt12_Vector_baseIP12CompoundNodeSaIS1_EED5Ev,comdat
	.align 2
	.weak	_ZNSt12_Vector_baseIP12CompoundNodeSaIS1_EED2Ev
	.type	_ZNSt12_Vector_baseIP12CompoundNodeSaIS1_EED2Ev, @function
_ZNSt12_Vector_baseIP12CompoundNodeSaIS1_EED2Ev:
.LFB3665:
	.cfi_startproc
	.cfi_personality 0x9b,DW.ref.__gxx_personality_v0
	.cfi_lsda 0x1b,.LLSDA3665
	endbr64
	pushq	%rbp
	.cfi_def_cfa_offset 16
	.cfi_offset 6, -16
	movq	%rsp, %rbp
	.cfi_def_cfa_register 6
	subq	$16, %rsp
	movq	%rdi, -8(%rbp)
	movq	-8(%rbp), %rax
	movq	16(%rax), %rdx
	movq	-8(%rbp), %rax
	movq	(%rax), %rax
	subq	%rax, %rdx
	movq	%rdx, %rax
	sarq	$3, %rax
	movq	%rax, %rdx
	movq	-8(%rbp), %rax
	movq	(%rax), %rcx
	movq	-8(%rbp), %rax
	movq	%rcx, %rsi
	movq	%rax, %rdi
	call	_ZNSt12_Vector_baseIP12CompoundNodeSaIS1_EE13_M_deallocateEPS1_m
	movq	-8(%rbp), %rax
	movq	%rax, %rdi
	call	_ZNSt12_Vector_baseIP12CompoundNodeSaIS1_EE12_Vector_implD1Ev
	nop
	leave
	.cfi_def_cfa 7, 8
	ret
	.cfi_endproc
.LFE3665:
	.section	.gcc_except_table
.LLSDA3665:
	.byte	0xff
	.byte	0xff
	.byte	0x1
	.uleb128 .LLSDACSE3665-.LLSDACSB3665
.LLSDACSB3665:
.LLSDACSE3665:
	.section	.text._ZNSt12_Vector_baseIP12CompoundNodeSaIS1_EED2Ev,"axG",@progbits,_ZNSt12_Vector_baseIP12CompoundNodeSaIS1_EED5Ev,comdat
	.size	_ZNSt12_Vector_baseIP12CompoundNodeSaIS1_EED2Ev, .-_ZNSt12_Vector_baseIP12CompoundNodeSaIS1_EED2Ev
	.weak	_ZNSt12_Vector_baseIP12CompoundNodeSaIS1_EED1Ev
	.set	_ZNSt12_Vector_baseIP12CompoundNodeSaIS1_EED1Ev,_ZNSt12_Vector_baseIP12CompoundNodeSaIS1_EED2Ev
	.section	.text._ZNKSt3setINSt7__cxx1112basic_stringIcSt11char_traitsIcESaIcEEESt4lessIS5_ESaIS5_EE5countERKS5_,"axG",@progbits,_ZNKSt3setINSt7__cxx1112basic_stringIcSt11char_traitsIcESaIcEEESt4lessIS5_ESaIS5_EE5countERKS5_,comdat
	.align 2
	.weak	_ZNKSt3setINSt7__cxx1112basic_stringIcSt11char_traitsIcESaIcEEESt4lessIS5_ESaIS5_EE5countERKS5_
	.type	_ZNKSt3setINSt7__cxx1112basic_stringIcSt11char_traitsIcESaIcEEESt4lessIS5_ESaIS5_EE5countERKS5_, @function
_ZNKSt3setINSt7__cxx1112basic_stringIcSt11char_traitsIcESaIcEEESt4lessIS5_ESaIS5_EE5countERKS5_:
.LFB3667:
	.cfi_startproc
	endbr64
	pushq	%rbp
	.cfi_def_cfa_offset 16
	.cfi_offset 6, -16
	movq	%rsp, %rbp
	.cfi_def_cfa_register 6
	subq	$48, %rsp
	movq	%rdi, -40(%rbp)
	movq	%rsi, -48(%rbp)
	movq	%fs:40, %rax
	movq	%rax, -8(%rbp)
	xorl	%eax, %eax
	movq	-40(%rbp), %rax
	movq	%rax, %rdi
	call	_ZNKSt8_Rb_treeINSt7__cxx1112basic_stringIcSt11char_traitsIcESaIcEEES5_St9_IdentityIS5_ESt4lessIS5_ESaIS5_EE3endEv
	movq	%rax, -16(%rbp)
	movq	-40(%rbp), %rax
	movq	-48(%rbp), %rdx
	movq	%rdx, %rsi
	movq	%rax, %rdi
	call	_ZNKSt8_Rb_treeINSt7__cxx1112basic_stringIcSt11char_traitsIcESaIcEEES5_St9_IdentityIS5_ESt4lessIS5_ESaIS5_EE4findERKS5_
	movq	%rax, -24(%rbp)
	leaq	-16(%rbp), %rdx
	leaq	-24(%rbp), %rax
	movq	%rdx, %rsi
	movq	%rax, %rdi
	call	_ZSteqRKSt23_Rb_tree_const_iteratorINSt7__cxx1112basic_stringIcSt11char_traitsIcESaIcEEEES8_
	testb	%al, %al
	je	.L542
	movl	$0, %eax
	jmp	.L544
.L542:
	movl	$1, %eax
.L544:
	movq	-8(%rbp), %rcx
	xorq	%fs:40, %rcx
	je	.L545
	call	__stack_chk_fail@PLT
.L545:
	leave
	.cfi_def_cfa 7, 8
	ret
	.cfi_endproc
.LFE3667:
	.size	_ZNKSt3setINSt7__cxx1112basic_stringIcSt11char_traitsIcESaIcEEESt4lessIS5_ESaIS5_EE5countERKS5_, .-_ZNKSt3setINSt7__cxx1112basic_stringIcSt11char_traitsIcESaIcEEESt4lessIS5_ESaIS5_EE5countERKS5_
	.section	.text._ZNSt3setINSt7__cxx1112basic_stringIcSt11char_traitsIcESaIcEEESt4lessIS5_ESaIS5_EE6insertEOS5_,"axG",@progbits,_ZNSt3setINSt7__cxx1112basic_stringIcSt11char_traitsIcESaIcEEESt4lessIS5_ESaIS5_EE6insertEOS5_,comdat
	.align 2
	.weak	_ZNSt3setINSt7__cxx1112basic_stringIcSt11char_traitsIcESaIcEEESt4lessIS5_ESaIS5_EE6insertEOS5_
	.type	_ZNSt3setINSt7__cxx1112basic_stringIcSt11char_traitsIcESaIcEEESt4lessIS5_ESaIS5_EE6insertEOS5_, @function
_ZNSt3setINSt7__cxx1112basic_stringIcSt11char_traitsIcESaIcEEESt4lessIS5_ESaIS5_EE6insertEOS5_:
.LFB3668:
	.cfi_startproc
	endbr64
	pushq	%rbp
	.cfi_def_cfa_offset 16
	.cfi_offset 6, -16
	movq	%rsp, %rbp
	.cfi_def_cfa_register 6
	pushq	%rbx
	subq	$72, %rsp
	.cfi_offset 3, -24
	movq	%rdi, -72(%rbp)
	movq	%rsi, -80(%rbp)
	movq	%fs:40, %rax
	movq	%rax, -24(%rbp)
	xorl	%eax, %eax
	movq	-72(%rbp), %rbx
	movq	-80(%rbp), %rax
	movq	%rax, %rdi
	call	_ZSt4moveIRNSt7__cxx1112basic_stringIcSt11char_traitsIcESaIcEEEEONSt16remove_referenceIT_E4typeEOS8_
	movq	%rax, %rsi
	movq	%rbx, %rdi
	call	_ZNSt8_Rb_treeINSt7__cxx1112basic_stringIcSt11char_traitsIcESaIcEEES5_St9_IdentityIS5_ESt4lessIS5_ESaIS5_EE16_M_insert_uniqueIS5_EESt4pairISt17_Rb_tree_iteratorIS5_EbEOT_
	movq	%rax, -64(%rbp)
	movq	%rdx, -56(%rbp)
	leaq	-64(%rbp), %rax
	leaq	8(%rax), %rdx
	leaq	-64(%rbp), %rcx
	leaq	-48(%rbp), %rax
	movq	%rcx, %rsi
	movq	%rax, %rdi
	call	_ZNSt4pairISt23_Rb_tree_const_iteratorINSt7__cxx1112basic_stringIcSt11char_traitsIcESaIcEEEEbEC1IRSt17_Rb_tree_iteratorIS6_ERbLb1EEEOT_OT0_
	movq	-48(%rbp), %rax
	movq	-40(%rbp), %rdx
	movq	-24(%rbp), %rcx
	xorq	%fs:40, %rcx
	je	.L548
	call	__stack_chk_fail@PLT
.L548:
	addq	$72, %rsp
	popq	%rbx
	popq	%rbp
	.cfi_def_cfa 7, 8
	ret
	.cfi_endproc
.LFE3668:
	.size	_ZNSt3setINSt7__cxx1112basic_stringIcSt11char_traitsIcESaIcEEESt4lessIS5_ESaIS5_EE6insertEOS5_, .-_ZNSt3setINSt7__cxx1112basic_stringIcSt11char_traitsIcESaIcEEESt4lessIS5_ESaIS5_EE6insertEOS5_
	.section	.text._ZNSt12_Vector_baseIiSaIiEE12_Vector_implC2Ev,"axG",@progbits,_ZNSt12_Vector_baseIiSaIiEE12_Vector_implC5Ev,comdat
	.align 2
	.weak	_ZNSt12_Vector_baseIiSaIiEE12_Vector_implC2Ev
	.type	_ZNSt12_Vector_baseIiSaIiEE12_Vector_implC2Ev, @function
_ZNSt12_Vector_baseIiSaIiEE12_Vector_implC2Ev:
.LFB3686:
	.cfi_startproc
	endbr64
	pushq	%rbp
	.cfi_def_cfa_offset 16
	.cfi_offset 6, -16
	movq	%rsp, %rbp
	.cfi_def_cfa_register 6
	subq	$16, %rsp
	movq	%rdi, -8(%rbp)
	movq	-8(%rbp), %rax
	movq	%rax, %rdi
	call	_ZNSaIiEC2Ev
	movq	-8(%rbp), %rax
	movq	%rax, %rdi
	call	_ZNSt12_Vector_baseIiSaIiEE17_Vector_impl_dataC2Ev
	nop
	leave
	.cfi_def_cfa 7, 8
	ret
	.cfi_endproc
.LFE3686:
	.size	_ZNSt12_Vector_baseIiSaIiEE12_Vector_implC2Ev, .-_ZNSt12_Vector_baseIiSaIiEE12_Vector_implC2Ev
	.weak	_ZNSt12_Vector_baseIiSaIiEE12_Vector_implC1Ev
	.set	_ZNSt12_Vector_baseIiSaIiEE12_Vector_implC1Ev,_ZNSt12_Vector_baseIiSaIiEE12_Vector_implC2Ev
	.section	.text._ZNSaIiED2Ev,"axG",@progbits,_ZNSaIiED5Ev,comdat
	.align 2
	.weak	_ZNSaIiED2Ev
	.type	_ZNSaIiED2Ev, @function
_ZNSaIiED2Ev:
.LFB3689:
	.cfi_startproc
	endbr64
	pushq	%rbp
	.cfi_def_cfa_offset 16
	.cfi_offset 6, -16
	movq	%rsp, %rbp
	.cfi_def_cfa_register 6
	subq	$16, %rsp
	movq	%rdi, -8(%rbp)
	movq	-8(%rbp), %rax
	movq	%rax, %rdi
	call	_ZN9__gnu_cxx13new_allocatorIiED2Ev
	nop
	leave
	.cfi_def_cfa 7, 8
	ret
	.cfi_endproc
.LFE3689:
	.size	_ZNSaIiED2Ev, .-_ZNSaIiED2Ev
	.weak	_ZNSaIiED1Ev
	.set	_ZNSaIiED1Ev,_ZNSaIiED2Ev
	.section	.text._ZNSt12_Vector_baseIiSaIiEED2Ev,"axG",@progbits,_ZNSt12_Vector_baseIiSaIiEED5Ev,comdat
	.align 2
	.weak	_ZNSt12_Vector_baseIiSaIiEED2Ev
	.type	_ZNSt12_Vector_baseIiSaIiEED2Ev, @function
_ZNSt12_Vector_baseIiSaIiEED2Ev:
.LFB3692:
	.cfi_startproc
	.cfi_personality 0x9b,DW.ref.__gxx_personality_v0
	.cfi_lsda 0x1b,.LLSDA3692
	endbr64
	pushq	%rbp
	.cfi_def_cfa_offset 16
	.cfi_offset 6, -16
	movq	%rsp, %rbp
	.cfi_def_cfa_register 6
	subq	$16, %rsp
	movq	%rdi, -8(%rbp)
	movq	-8(%rbp), %rax
	movq	16(%rax), %rdx
	movq	-8(%rbp), %rax
	movq	(%rax), %rax
	subq	%rax, %rdx
	movq	%rdx, %rax
	sarq	$2, %rax
	movq	%rax, %rdx
	movq	-8(%rbp), %rax
	movq	(%rax), %rcx
	movq	-8(%rbp), %rax
	movq	%rcx, %rsi
	movq	%rax, %rdi
	call	_ZNSt12_Vector_baseIiSaIiEE13_M_deallocateEPim
	movq	-8(%rbp), %rax
	movq	%rax, %rdi
	call	_ZNSt12_Vector_baseIiSaIiEE12_Vector_implD1Ev
	nop
	leave
	.cfi_def_cfa 7, 8
	ret
	.cfi_endproc
.LFE3692:
	.section	.gcc_except_table
.LLSDA3692:
	.byte	0xff
	.byte	0xff
	.byte	0x1
	.uleb128 .LLSDACSE3692-.LLSDACSB3692
.LLSDACSB3692:
.LLSDACSE3692:
	.section	.text._ZNSt12_Vector_baseIiSaIiEED2Ev,"axG",@progbits,_ZNSt12_Vector_baseIiSaIiEED5Ev,comdat
	.size	_ZNSt12_Vector_baseIiSaIiEED2Ev, .-_ZNSt12_Vector_baseIiSaIiEED2Ev
	.weak	_ZNSt12_Vector_baseIiSaIiEED1Ev
	.set	_ZNSt12_Vector_baseIiSaIiEED1Ev,_ZNSt12_Vector_baseIiSaIiEED2Ev
	.section	.text._ZNSt12_Vector_baseIP13StatementNodeSaIS1_EE12_Vector_implC2Ev,"axG",@progbits,_ZNSt12_Vector_baseIP13StatementNodeSaIS1_EE12_Vector_implC5Ev,comdat
	.align 2
	.weak	_ZNSt12_Vector_baseIP13StatementNodeSaIS1_EE12_Vector_implC2Ev
	.type	_ZNSt12_Vector_baseIP13StatementNodeSaIS1_EE12_Vector_implC2Ev, @function
